(dp1
S'output'
p2
S"<type 'exceptions.TypeError'> unsupported operand type(s) for |: 'str' and 'tuple'"
p3
sS'layer'
p4
S'/home/amauri/web2py/applications/eventos/views/default/home.html'
p5
sS'code'
p6
S'response.write(\'<!DOCTYPE html>\\n<html lang="pt-br">\\n  <head>\\n    <meta charset="utf-8">\\n    <meta http-equiv="X-UA-Compatible" content="IE=edge">\\n    <meta name="viewport" content="width=device-width, initial-scale=1">\\n    <!-- The above 3 meta tags *must* come first in the head; any other head content must come *after* these tags -->\\n    <title>Encontro dos Primos do S\\xc3\\xadtio</title>\\n    <!-- Google Fonts -->\\n    <link href="https://fonts.googleapis.com/css?family=Lato:300,400,700" rel="stylesheet">\\n    <!-- Bootstrap -->\\n    <link href="\', escape=False)\nresponse.write(URL(\'static\', \'css/bootstrap.min.css\'))\nresponse.write(\'" rel="stylesheet">\\n    <link href="\', escape=False)\nresponse.write(URL(\'static\', \'css/font-awesome.min.css\'))\nresponse.write(\'" rel="stylesheet">\\n    <link href="\', escape=False)\nresponse.write(URL(\'static\', \'css/estilo.css\'))\nresponse.write(\'" rel="stylesheet">\\n\\n    <!-- HTML5 shim and Respond.js for IE8 support of HTML5 elements and media queries -->\\n    <!-- WARNING: Respond.js doesn\\\'t work if you view the page via file:// -->\\n    <!--[if lt IE 9]>\\n      <script src="https://oss.maxcdn.com/html5shiv/3.7.3/html5shiv.min.js"></script>\\n      <script src="https://oss.maxcdn.com/respond/1.4.2/respond.min.js"></script>\\n    <![endif]-->\\n    \', escape=False)\nresponse.write(\'<script type="text/javascript"><!--\\n    // These variables are used by the web2py_ajax_init function in web2py_ajax.js (which is loaded below).\\n    var w2p_ajax_confirm_message = "\', escape=False)\nresponse.write(T(\'Are you sure you want to delete this object?\'))\nresponse.write(\'";\\n    var w2p_ajax_disable_with_message = "\', escape=False)\nresponse.write(T(\'Working...\'))\nresponse.write(\'";\\n    var w2p_ajax_date_format = "\', escape=False)\nresponse.write(T(\'%Y-%m-%d\'))\nresponse.write(\'";\\n    var w2p_ajax_datetime_format = "\', escape=False)\nresponse.write(T(\'%Y-%m-%d %H:%M:%S\'))\nresponse.write(\'";\\n    var ajax_error_500 = \\\'\', escape=False)\nresponse.write(T.M(\'An error occured, please [[reload %s]] the page\') % URL(args=request.args, vars=request.get_vars))\nresponse.write("\'\\n    //--></script>\\n", escape=False)\nresponse.files.insert(0,URL(\'static\',\'js/jquery.js\'))\nresponse.files.insert(1,URL(\'static\',\'css/calendar.css\'))\nresponse.files.insert(2,URL(\'static\',\'js/calendar.js\'))\nresponse.files.insert(3,URL(\'static\',\'js/web2py.js\'))\nresponse.include_meta()\nresponse.include_files()\nresponse.write(\'\\n\', escape=False)\nresponse.write(\'\\n  </head>\\n  <body data-spy="scroll" data-target=".menu-navegacao" data-offset="80">\\n\\n      <!-- Menu da Aplica\\xc3\\xa7\\xc3\\xa3o -->\\n      <nav class="navbar navbar-inverse navbar-fixed-top" role="navigation">\\n        <div class="container-fluid">\\n            <div class="navbar-header centro">\\n                <button type="button" class="navbar-toggle collapsed" data-toggle="collapse" data-target="#menu-navegacao" aria-expanded="false" aria-controls="navbar">\\n                    <span class="icon-bar"></span>\\n                    <span class="icon-bar"></span>\\n                    <span class="icon-bar"></span>\\n                </button>\\n                <div class="navbar-header centro">\\n                    <a class="navbar-brand" href="#">Primos do S\\xc3\\xadtio</a>\\n                    <span class="badge-container">\\n                    <a href="#" class="dropdown-toggle" data-toggle="dropdown" role="button" aria-haspopup="false" aria-expanded="false">\\n                <!--<img src="\', escape=False)\nresponse.write(URL(\'static\',\'img/userAnonymous.png\'))\nresponse.write(\'" alt="Perfil do Usu\\xc3\\xa1rio" class="avatar img-circle"></a>-->\\n                    <img src="\', escape=False)\nresponse.write(URL(\'download\', args=\'%(fotoPerfil)s\' %(auth.user)) | (\'static\',\'img/userAnonymous.png\'))\nresponse.write(\'" alt="Perfil do Usu\\xc3\\xa1rio" class="avatar img-circle"></a>\\n                    <a href="\', escape=False)\nresponse.write(URL(\'home\'))\nresponse.write(\'"><span class="badge">15</span></a>\\n<!--args=db.auth_user.fotoPerfil-->\\n                    <ul class="dropdown-menu">\\n                        <li><a href="\', escape=False)\nresponse.write(URL(\'user/register\'))\nresponse.write(\'">Login</a></li>\\n                        <li><a href="\', escape=False)\nresponse.write(URL(\'user/profile\'))\nresponse.write(\'">Perfil</a></li>\\n                        <li><a href="\', escape=False)\nresponse.write(URL(\'painel\'))\nresponse.write(\'">Gerenciamento</a></li>\\n                        <li><a href="\', escape=False)\nresponse.write(URL(\'user/logout\'))\nresponse.write(\'">Sair</a></li>\\n                    </ul>\\n                    </span>\\n                </div>\\n            </div>\\n\\n            <div class="collapse navbar-collapse centro menu-navegacao" id="menu-navegacao">\\n                <h5 class="navbar-text">Ol\\xc3\\xa1 \', escape=False)\nresponse.write(\'%(first_name)s\' %(auth.user))\nresponse.write(\'</h5>\\n                <ul class="nav navbar-nav navbar-right">\\n                    <li class="active"><a href="#top">In\\xc3\\xadcio</a></li>\\n                    <li class="dropdown">\\n                        <a href="#" class="dropdown-toggle" data-toggle="dropdown" role="button" aria-haspopup="true" aria-expanded="false">Informa\\xc3\\xa7\\xc3\\xb5es<span class="caret"></span></a>\\n                        <ul class="dropdown-menu">\\n                            <li><a href="#informacoes">Sobre o evento</a></li>\\n                            <li><a href="#oquelevar">O Que Levar</a></li>\\n                            <li><a href="#dataelocal">Data e Local</a></li>\\n                        </ul>\\n                    </li>\\n                    <li class="dropdown">\\n                        <a href="#" class="dropdown-toggle" data-toggle="dropdown" role="button" aria-haspopup="true" aria-expanded="false">Participantes<span class="caret"></span></a>\\n                        <ul class="dropdown-menu">\\n                            <li><a href="#confirmados">Confirmados</a></li>\\n                            <li><a href="#naoconfirmados">N\\xc3\\xa3o Confirmados</a></li>\\n                        </ul>\\n                    </li>\\n                    <li><a href="#comentarios">Coment\\xc3\\xa1rios</a></li>\\n                </ul>\\n            </div>\\n        </div>\\n      </nav>\\n      <!-- // Menu da Aplica\\xc3\\xa7\\xc3\\xa3o -->\\n\\n\\n      <!-- Slider da Aplica\\xc3\\xa7\\xc3\\xa3o -->\\n      <!--<section id="inicio"> &lt;!&ndash; class="fundo-slider"> &ndash;&gt;-->\\n          <div class="divslider fundo-slider">\\n              <div class="container">\\n                  <div class="row">\\n                      <div class="col-xs-offset-1 col-xs-10 col-xs-offset-1 col-sm-offset-2 col-sm-8 col-sm-offset-2 col-md-offset-2 col-md-8 col-md-offset-2 col-lg-offset-3 col-lg-6 col-lg-offset-3">\\n                          <div id="sliderprincipal" class="carousel slide" data-ride="carousel" data-interval="3000">\\n\\n                              <ol class="carousel-indicators">\\n                                  <li data-target="#sliderprincipal" data-slide-to="0" class="active"></li>\\n                                  <li data-target="#sliderprincipal" data-slide-to="1"></li>\\n                                  <li data-target="#sliderprincipal" data-slide-to="2"></li>\\n                                  <li data-target="#sliderprincipal" data-slide-to="3"></li>\\n                              </ol>\\n\\n                            <div class="carousel-inner" role="listbox">\\n                                <div class="item active">\\n                                    <img src="\', escape=False)\nresponse.write(URL(\'static\',\'imgPrimos/01.jpg\'))\nresponse.write(\'" class="img-responsive" alt="Imagem Slider 1">\\n                                </div>\\n                                <div class="item">\\n                                    <img src="\', escape=False)\nresponse.write(URL(\'static\',\'imgPrimos/02.jpg\'))\nresponse.write(\'" class="img-responsive" alt="Imagem Slider 2">\\n                                </div>\\n                                <div class="item">\\n                                    <img src="\', escape=False)\nresponse.write(URL(\'static\',\'imgPrimos/03.jpg\'))\nresponse.write(\'" class="img-responsive" alt="Imagem Slider 2">\\n                                </div>\\n                                <div class="item">\\n                                    <img src="\', escape=False)\nresponse.write(URL(\'static\',\'imgPrimos/04.jpg\'))\nresponse.write(\'" class="img-responsive" alt="Imagem Slider 2">\\n                                </div>\\n                            </div>\\n\\n                              <a class="left carousel-control" href="#sliderprincipal" role="button" data-slide="prev">\\n                                  <span class="glyphicon glyphicon-chevron-left"></span>\\n                                  <span class="sr-only">Anterior</span>\\n                              </a>\\n                              <a class="right carousel-control" href="#sliderprincipal" role="button" data-slide="next">\\n                                  <span class="glyphicon glyphicon-chevron-right"></span>\\n                                  <span class="sr-only">Pr\\xc3\\xb3ximo</span>\\n                              </a>\\n\\n                          </div>\\n                        </div>\\n                    </div>\\n              </div>\\n          </div>\\n      <!--</section>-->\\n      <!-- // Slider da Aplica\\xc3\\xa7\\xc3\\xa3o -->\\n\\n      <!-- Informa\\xc3\\xa7\\xc3\\xb5es -->\\n      <section id="informacoes" class="fundo-informacoes">\\n          <div class="container">\\n                <div class="row">\\n                    <div class="col-xs-12">\\n                        <div class="page-header">\\n                            <h1>Informa\\xc3\\xa7\\xc3\\xb5es<br/><small>Sobre o evento</small></h1>\\n                        </div>\\n                    </div>\\n                </div>\\n          </div>\\n      </section>\\n      <!-- // Informa\\xc3\\xa7\\xc3\\xb5es -->\\n\\n      <!-- Confirmados -->\\n      <section id="confirmados" class="fundo-confirmados">\\n          <div class="container">\\n                <div class="row">\\n                    <div class="col-xs-12">\\n                        <div class="page-header">\\n                            <h1>Confirmados<br/><small>Sem Frescura</small></h1>\\n                        </div>\\n                    </div>\\n                </div>\\n\\n                <div class="row foto-centro">\\n                  <div class="col-xs-6 col-md-3 col-lg-4 text-center">\\n                        <div class="foto-centro"><img src="\', escape=False)\nresponse.write(URL(\'static\', \'img/userAnonymous.png\'))\nresponse.write(\'" class="img-responsive img-circle" /></div>\\n                        <!--<h4 class="sr-only">Amauri</h4>-->\\n                        <h4>Amauri</h4>\\n                  </div>\\n\\n                    <div class="col-xs-6 col-md-3 col-lg-4 text-center">\\n                        <div class="foto-centro"><img src="\', escape=False)\nresponse.write(URL(\'static\', \'img/userAnonymous.png\'))\nresponse.write(\'" class="img-responsive img-circle" /></div>\\n                        <h4>Ideli</h4>\\n                    </div>\\n\\n                    <div class="col-xs-6 col-md-3 col-lg-4 text-center">\\n                        <div class="foto-centro"><img src="\', escape=False)\nresponse.write(URL(\'static\', \'img/userAnonymous.png\'))\nresponse.write(\'" class="img-responsive img-circle" /></div>\\n                        <h4>Katia</h4>\\n                    </div>\\n                </div>\\n\\n                <div class="row foto-centro">\\n                  <div class="col-xs-6 col-md-3 col-lg-4 text-center">\\n                        <div class="foto-centro"><img src="\', escape=False)\nresponse.write(URL(\'static\', \'img/userAnonymous.png\'))\nresponse.write(\'" class="img-responsive img-circle" /></div>\\n                        <h4>Ana Paula</h4>\\n                  </div>\\n\\n                    <div class="col-xs-6 col-md-3 col-lg-4 text-center">\\n                        <div class="foto-centro"><img src="\', escape=False)\nresponse.write(URL(\'static\', \'img/userAnonymous.png\'))\nresponse.write(\'" class="img-responsive img-circle" /></div>\\n                        <h4>Marcelo</h4>\\n                    </div>\\n\\n                    <div class="col-xs-6 col-md-3 col-lg-4 text-center">\\n                        <div class="foto-centro"><img src="\', escape=False)\nresponse.write(URL(\'static\', \'img/userAnonymous.png\'))\nresponse.write(\'" class="img-responsive img-circle" /></div>\\n                        <h4>Fabio</h4>\\n                    </div>\\n                </div>\\n\\n                <div class="row foto-centro">\\n                  <div class="col-xs-6 col-md-3 col-lg-4 text-center">\\n                        <div class="foto-centro"><img src="\', escape=False)\nresponse.write(URL(\'static\', \'img/userAnonymous.png\'))\nresponse.write(\'" class="img-responsive img-circle" /></div>\\n                        <h4>Ana Luzia</h4>\\n                  </div>\\n\\n                    <div class="col-xs-6 col-md-3 col-lg-4 text-center">\\n                        <div class="foto-centro"><img src="\', escape=False)\nresponse.write(URL(\'static\', \'img/userAnonymous.png\'))\nresponse.write(\'" class="img-responsive img-circle" /></div>\\n                        <h4>Rosana</h4>\\n                    </div>\\n\\n                    <div class="col-xs-6 col-md-3 col-lg-4 text-center">\\n                        <div class="foto-centro"><img src="\', escape=False)\nresponse.write(URL(\'static\', \'img/userAnonymous.png\'))\nresponse.write(\'" class="img-responsive img-circle" /></div>\\n                        <h4>Marcio</h4>\\n                    </div>\\n                </div>\\n          </div>\\n      </section>\\n      <!-- /. Confirmados -->\\n\\n\\n      <!-- N\\xc3\\xa3o Confirmados -->\\n      <section id="naoconfirmados" class="fundo-naoconfirmados">\\n          <div class="container">\\n                <div class="row">\\n                    <div class="col-xs-12">\\n                        <div class="page-header">\\n                            <h1>N\\xc3\\xa3o Confirmados<br/><small>No Pared\\xc3\\xa3o</small></h1>\\n                        </div>\\n                    </div>\\n                </div>\\n\\n                <div class="row contato">\\n                    <div class="col-xs-12">\\n                        <h4 class="bg-primary aviso-presenca text-center">Clique na sua foto para confirmar que ir\\xc3\\xa1 ao evento</h4>\\n                    </div>\\n                </div>\\n\\n                <div class="row foto-centro">\\n                  <div class="col-xs-6 col-md-3 col-lg-4 text-center">\\n                        <a href="#" class="foto-centro"><img src="\', escape=False)\nresponse.write(URL(\'static\', \'imgPrimos/Amauri.jpg\'))\nresponse.write(\'" class="img-responsive img-circle" /></a>\\n                        <h4>Amauri</h4>\\n                  </div>\\n                  \\n                    <div class="col-xs-6 col-md-3 col-lg-4 text-center">\\n                        <a  href="#" class="foto-centro"><img src="\', escape=False)\nresponse.write(URL(\'static\', \'imgPrimos/Ideli.jpg\'))\nresponse.write(\'" class="img-responsive img-circle" /></a>\\n                        <h4>Ideli</h4>\\n                    </div>\\n \\n                    <div class="col-xs-6 col-md-3 col-lg-4 text-center">\\n                        <a href="#" class="foto-centro"><img src="\', escape=False)\nresponse.write(URL(\'static\', \'imgPrimos/Katia.jpg\'))\nresponse.write(\'" class="img-responsive img-circle" /></a>\\n                        <h4>Katia</h4>\\n                    </div>\\n                </div>\\n\\n                <div class="row foto-centro">\\n                  <div class="col-xs-6 col-md-3 col-lg-4 text-center">\\n                        <a href="#" class="foto-centro"><img src="\', escape=False)\nresponse.write(URL(\'static\', \'imgPrimos/AnaPaula.jpg\'))\nresponse.write(\'" class="img-responsive img-circle" /></a>\\n                        <h4>Ana Paula</h4>\\n                  </div>\\n\\n                    <div class="col-xs-6 col-md-3 col-lg-4 text-center">\\n                        <a href="#" class="foto-centro"><img src="\', escape=False)\nresponse.write(URL(\'static\', \'imgPrimos/Marcelo.jpg\'))\nresponse.write(\'" class="img-responsive img-circle" /></a>\\n                        <h4>Marcelo</h4>\\n                    </div>\\n\\n                    <div class="col-xs-6 col-md-3 col-lg-4 text-center">\\n                        <a href="#" class="foto-centro"><img src="\', escape=False)\nresponse.write(URL(\'static\', \'imgPrimos/Fabio.jpg\'))\nresponse.write(\'" class="img-responsive img-circle" /></a>\\n                        <h4>Fabio</h4>\\n                    </div>\\n                </div>\\n\\n                <div class="row foto-centro">\\n                  <div class="col-xs-6 col-md-3 col-lg-4 text-center">\\n                        <a href="#" class="foto-centro"><img src="\', escape=False)\nresponse.write(URL(\'static\', \'imgPrimos/AnaLuzia.jpg\'))\nresponse.write(\'" class="img-responsive img-circle" /></a>\\n                        <h4>Ana Luzia</h4>\\n                  </div>\\n\\n                    <div class="col-xs-6 col-md-3 col-lg-4 text-center">\\n                        <a href="#" class="foto-centro"><img src="\', escape=False)\nresponse.write(URL(\'static\', \'imgPrimos/Rosana.jpg\'))\nresponse.write(\'" class="img-responsive img-circle" /></a>\\n                        <h4>Rosana</h4>\\n                    </div>\\n\\n                    <div class="col-xs-6 col-md-3 col-lg-4 text-center">\\n                        <a href="#" class="foto-centro"><img src="\', escape=False)\nresponse.write(URL(\'static\', \'imgPrimos/Marcio.jpg\'))\nresponse.write(\'" class="img-responsive img-circle" /></a>\\n                        <h4>Marcio</h4>\\n                    </div>\\n                </div>\\n          </div>\\n      </section>\\n      \\n      <!-- // N\\xc3\\xa3o Confirmados -->\\n      \\n      <!-- O Que Levar -->\\n      <section id="oquelevar" class="fundo-levar">\\n          <div class="container">\\n              <div class="row">\\n                <div class="col-xs-12">\\n                    <div class="page-header">\\n                        <h1>O Que Levar <small class="glyphicon glyphicon-cutlery tam_icon"></small></h1>\\n                    </div>\\n                </div>\\n              </div>\\n              \\n              <div class="container">\\n                    <div class="row">\\n                        <div class="col-xs-12">\\n                            <div class="page-header">\\n                                <h1>Churrasco</h1>\\n                            </div>\\n                                <div class="btn-group" data-toggle="buttons">\\n                                    <label class="btn btn-primary btnjs active">\\n                                        <input type="checkbox" checked>Cerveja\\n                                    </label>\\n                                    <label class="btn btn-primary btnjs">\\n                                        <input type="checkbox">Picanha\\n                                    </label>\\n                                    <label class="btn btn-primary btnjs">\\n                                        <input type="checkbox">Lingui\\xc3\\xa7a Apimentada\\n                                    </label>\\n                                </div>\\n                        </div>\\n                   </div>\\n              </div>\\n\\n          </div>\\n      </section>\\n\\n      <!--<div class="btn-group" data-toggle="buttons">\\n  <label class="btn btn-primary active">\\n    <input type="checkbox" autocomplete="off" checked> Checkbox 1 (pre-checked)\\n  </label>\\n  <label class="btn btn-primary">\\n    <input type="checkbox" autocomplete="off"> Checkbox 2\\n  </label>\\n  <label class="btn btn-primary">\\n    <input type="checkbox" autocomplete="off"> Checkbox 3\\n  </label>\\n</div>-->\\n      \\n      <!-- // O Que Levar -->\\n      \\n      <!-- Data e Local -->\\n      <section id="dataelocal">\\n          <div class="container">\\n              <div class="row">\\n                <div class="col-xs-12">\\n                    <div class="page-header">\\n                        <h1>Data e Local <small class="glyphicon glyphicon-calendar tam_icon"></small></h1>\\n                    </div>\\n                    \\n                </div>\\n              </div>\\n              \\n              <div class="row">\\n                <div class="col-xs-12">\\n                    <div class="col-xs-12 col-sm-4 col-md-4 col-lg-4">\\n                        <h3>Data Indeterminada</h3>\\n                        <h3>Local Indeterminado</h3>\\n                    </div>\\n                    <div class="col-xs-12 col-sm-8 col-md-8 col-lg-8">\\n                    <iframe src="https://www.google.com/maps/embed?pb=!1m18!1m12!1m3!1d3657.448428335559!2d-46.\\n                    66045758548029!3d-23.552332884687388!2m3!1f0!2f0!3f0!3m2!1i1024!2i768!4f13.1!3m3!1m2!1s0x94\\n                    ce583336f5f7fd%3A0xfd167d460c5b21b2!2zUi4gZGEgQ29uc29sYcOnw6NvIC0gQ29uc29sYcOnw6NvLCBTw6NvI\\n                    FBhdWxvIC0gU1A!5e0!3m2!1spt-BR!2sbr!4v1471707714547" width="80%" height="400" frameborder="0"\\n                            style="border:0" allowfullscreen></iframe>\\n                    </div>\\n              </div>\\n            </div>\\n          </div>\\n      </section>      \\n      \\n      <!-- // Data e Local -->\\n      \\n      <!-- D\\xc3\\xbavidas -->\\n      <section id="comentarios">\\n          <div class="container">\\n            <div class="row">\\n                <div class="col-xs-12">\\n                    <div class="page-header">\\n                        <h1>D\\xc3\\xbavidas, Coment\\xc3\\xa1rios e Sugest\\xc3\\xb5es <small class="glyphicon glyphicon-question-sign tam_icon"></small></h1>\\n                    </div>\\n                </div>\\n            </div>\\n              \\n            <div class="row contato">\\n                <div class="col-xs-12">\\n                    <h4 class="bg-success aviso-presenca">Tire sua d\\xc3\\xbavida, fa\\xc3\\xa7a um coment\\xc3\\xa1rio ou sugest\\xc3\\xa3o</h4>\\n                </div>\\n            </div>\\n            \\n            <div class="row">\\n                <div class="col-xs-12">\\n                    <form name="frmContato" id="formContato">\\n                        <div class="row contato">\\n                            <div class="col-md-6">\\n                                <div class="form-group">\\n                                    <input type="text" class="form-control input-lg" placeholder="Digite seu nome *" required />\\n                                </div>\\n                                <div class="form-group">\\n                                    <input type="email" class="form-control input-lg" placeholder="Digite seu e-mail *" required />\\n                                </div>\\n                                <div class="form-group">\\n                                    <input type="tel" class="form-control input-lg" placeholder="Digite seu telefone" />\\n                                </div>\\n                                <div class="form-group">\\n                                <button type="submit" class="btn btn-info btn-lg btn-block disabled">Enviar Formul\\xc3\\xa1rio</button>\\n                                </div>\\n                            </div>\\n                            <div class="col-md-6">\\n                                <textarea class="form-control" placeholder="Sua mensagem"></textarea>\\n                            </div>\\n\\n                        </div>\\n                        \\n                        <!--<div class="row">\\n                            <div class="col-sm-6">\\n                                <div class="alert alert-success envio sr-only">Envio Realizado com successo!</div>\\n                            </div>\\n                        </div>\\n                        <div class="row">\\n                            <div class="col-sm-6">\\n                                <div class="alert alert-danger envio sr-only">Erro ao enviar. Verifique os dados digitados.</div>\\n                            </div>\\n                        </div>-->\\n                    </form>\\n                </div>\\n            </div>\\n              \\n          </div>\\n      </section>      \\n      \\n      <!-- // D\\xc3\\xbavidas -->\\n      \\n      <footer>\\n        <div class="container">\\n            <div class="row">\\n                <div class="col-sm-10">\\n                    <p>Essa plataforma de eventos est\\xc3\\xa1 em fase de testes.</p>\\n                    <p>Em breve teremos novas funcionalidades.</p>\\n                    <p>Voc\\xc3\\xaa tamb\\xc3\\xa9m pode deixar um coment\\xc3\\xa1rio ou sugest\\xc3\\xa3o para melhorarmos essa plataforma.</p>\\n                </div>\\n                <div class="col-sm-2 text-right">\\n                    <small>Desenvolvido por</small><br />\\n                    <strong>Amauri Rossetti Giovani</strong>\\n                </div>\\n            </div>\\n        </div>\\n      </footer>\\n      \\n      \\n    <!-- jQuery (necessary for Bootstrap\\\'s JavaScript plugins) -->\\n\\n    <script src="https://ajax.googleapis.com/ajax/libs/jquery/1.12.4/jquery.min.js"></script>\\n    <!-- Include all compiled plugins (below), or include individual files as needed -->\\n    <script src="\', escape=False)\nresponse.write(URL(\'static\',\'js/bootstrap.min.js\'))\nresponse.write(\'"></script>\\n    <script src="\', escape=False)\nresponse.write(URL(\'static\',\'js/main.js\'))\nresponse.write(\'"></script>\\n  </body>\\n</html>\', escape=False)'
p7
sS'snapshot'
p8
(dp9
S'exception'
p10
(dp11
S'__hash__'
p12
S"<method-wrapper '__hash__' of exceptions.TypeError object>"
p13
sS'__setattr__'
p14
S"<method-wrapper '__setattr__' of exceptions.TypeError object>"
p15
sS'__reduce_ex__'
p16
S'<built-in method __reduce_ex__ of exceptions.TypeError object>'
p17
sS'__getslice__'
p18
S"<method-wrapper '__getslice__' of exceptions.TypeError object>"
p19
sS'__getitem__'
p20
S"<method-wrapper '__getitem__' of exceptions.TypeError object>"
p21
sS'__setstate__'
p22
S'<built-in method __setstate__ of exceptions.TypeError object>'
p23
sS'args'
p24
S'("unsupported operand type(s) for |: \'str\' and \'tuple\'",)'
p25
sS'__reduce__'
p26
S'<built-in method __reduce__ of exceptions.TypeError object>'
p27
sS'__str__'
p28
S"<method-wrapper '__str__' of exceptions.TypeError object>"
p29
sS'__format__'
p30
S'<built-in method __format__ of exceptions.TypeError object>'
p31
sS'__getattribute__'
p32
S"<method-wrapper '__getattribute__' of exceptions.TypeError object>"
p33
sS'__class__'
p34
S"<type 'exceptions.TypeError'>"
p35
sS'__unicode__'
p36
S'<built-in method __unicode__ of exceptions.TypeError object>'
p37
sS'__delattr__'
p38
S"<method-wrapper '__delattr__' of exceptions.TypeError object>"
p39
sS'__subclasshook__'
p40
S'<built-in method __subclasshook__ of type object>'
p41
sS'__repr__'
p42
S"<method-wrapper '__repr__' of exceptions.TypeError object>"
p43
sS'__dict__'
p44
S'{}'
p45
sS'__sizeof__'
p46
S'<built-in method __sizeof__ of exceptions.TypeError object>'
p47
sS'__doc__'
p48
S"'Inappropriate argument type.'"
p49
sS'__init__'
p50
S"<method-wrapper '__init__' of exceptions.TypeError object>"
p51
sS'__new__'
p52
S'<built-in method __new__ of type object>'
p53
ssS'evalue'
p54
S"unsupported operand type(s) for |: 'str' and 'tuple'"
p55
sS'request'
p56
cgluon.html
XML_unpickle
p57
(S's\xda\x80\x00\x00<div><table><tr><td style="font-weight:bold;vertical-align:top;">ajax</td><td style="vertical-align:top;">:</td><td><div>False</div></td></tr><tr><td style="font-weight:bold;vertical-align:top;">application</td><td style="vertical-align:top;">:</td><td><div>eventos</div></td></tr><tr><td style="font-weight:bold;vertical-align:top;">args</td><td style="vertical-align:top;">:</td><td><div><table></table></div></td></tr><tr><td style="font-weight:bold;vertical-align:top;">cid</td><td style="vertical-align:top;">:</td><td><div>None</div></td></tr><tr><td style="font-weight:bold;vertical-align:top;">client</td><td style="vertical-align:top;">:</td><td><div>127.0.0.1</div></td></tr><tr><td style="font-weight:bold;vertical-align:top;">controller</td><td style="vertical-align:top;">:</td><td><div>default</div></td></tr><tr><td style="font-weight:bold;vertical-align:top;">cookies</td><td style="vertical-align:top;">:</td><td><div><table><tr><td style="font-weight:bold;vertical-align:top;">csrftoken</td><td style="vertical-align:top;">:</td><td><div>uqMEz0lg4FL0YUTC4Liab1Ytp07dBK9u<table><tr><td style="font-weight:bold;vertical-align:top;">comment</td><td style="vertical-align:top;">:</td><td><div></div></td></tr><tr><td style="font-weight:bold;vertical-align:top;">domain</td><td style="vertical-align:top;">:</td><td><div></div></td></tr><tr><td style="font-weight:bold;vertical-align:top;">expires</td><td style="vertical-align:top;">:</td><td><div></div></td></tr><tr><td style="font-weight:bold;vertical-align:top;">httponly</td><td style="vertical-align:top;">:</td><td><div></div></td></tr><tr><td style="font-weight:bold;vertical-align:top;">max-age</td><td style="vertical-align:top;">:</td><td><div></div></td></tr><tr><td style="font-weight:bold;vertical-align:top;">path</td><td style="vertical-align:top;">:</td><td><div></div></td></tr><tr><td style="font-weight:bold;vertical-align:top;">secure</td><td style="vertical-align:top;">:</td><td><div></div></td></tr><tr><td style="font-weight:bold;vertical-align:top;">version</td><td style="vertical-align:top;">:</td><td><div></div></td></tr></table></div></td></tr><tr><td style="font-weight:bold;vertical-align:top;">session_id_admin</td><td style="vertical-align:top;">:</td><td><div>127.0.0.1-7d3557b2-1623-4d08-a556-38c19345f470<table><tr><td style="font-weight:bold;vertical-align:top;">comment</td><td style="vertical-align:top;">:</td><td><div></div></td></tr><tr><td style="font-weight:bold;vertical-align:top;">domain</td><td style="vertical-align:top;">:</td><td><div></div></td></tr><tr><td style="font-weight:bold;vertical-align:top;">expires</td><td style="vertical-align:top;">:</td><td><div></div></td></tr><tr><td style="font-weight:bold;vertical-align:top;">httponly</td><td style="vertical-align:top;">:</td><td><div></div></td></tr><tr><td style="font-weight:bold;vertical-align:top;">max-age</td><td style="vertical-align:top;">:</td><td><div></div></td></tr><tr><td style="font-weight:bold;vertical-align:top;">path</td><td style="vertical-align:top;">:</td><td><div></div></td></tr><tr><td style="font-weight:bold;vertical-align:top;">secure</td><td style="vertical-align:top;">:</td><td><div></div></td></tr><tr><td style="font-weight:bold;vertical-align:top;">version</td><td style="vertical-align:top;">:</td><td><div></div></td></tr></table></div></td></tr><tr><td style="font-weight:bold;vertical-align:top;">session_id_chamados</td><td style="vertical-align:top;">:</td><td><div>127.0.0.1-22a35465-903f-4059-8156-01cd8e20f646<table><tr><td style="font-weight:bold;vertical-align:top;">comment</td><td style="vertical-align:top;">:</td><td><div></div></td></tr><tr><td style="font-weight:bold;vertical-align:top;">domain</td><td style="vertical-align:top;">:</td><td><div></div></td></tr><tr><td style="font-weight:bold;vertical-align:top;">expires</td><td style="vertical-align:top;">:</td><td><div></div></td></tr><tr><td style="font-weight:bold;vertical-align:top;">httponly</td><td style="vertical-align:top;">:</td><td><div></div></td></tr><tr><td style="font-weight:bold;vertical-align:top;">max-age</td><td style="vertical-align:top;">:</td><td><div></div></td></tr><tr><td style="font-weight:bold;vertical-align:top;">path</td><td style="vertical-align:top;">:</td><td><div></div></td></tr><tr><td style="font-weight:bold;vertical-align:top;">secure</td><td style="vertical-align:top;">:</td><td><div></div></td></tr><tr><td style="font-weight:bold;vertical-align:top;">version</td><td style="vertical-align:top;">:</td><td><div></div></td></tr></table></div></td></tr><tr><td style="font-weight:bold;vertical-align:top;">session_id_distancia</td><td style="vertical-align:top;">:</td><td><div>127.0.0.1-df36c602-f030-47b9-a620-ab1284350e38<table><tr><td style="font-weight:bold;vertical-align:top;">comment</td><td style="vertical-align:top;">:</td><td><div></div></td></tr><tr><td style="font-weight:bold;vertical-align:top;">domain</td><td style="vertical-align:top;">:</td><td><div></div></td></tr><tr><td style="font-weight:bold;vertical-align:top;">expires</td><td style="vertical-align:top;">:</td><td><div></div></td></tr><tr><td style="font-weight:bold;vertical-align:top;">httponly</td><td style="vertical-align:top;">:</td><td><div></div></td></tr><tr><td style="font-weight:bold;vertical-align:top;">max-age</td><td style="vertical-align:top;">:</td><td><div></div></td></tr><tr><td style="font-weight:bold;vertical-align:top;">path</td><td style="vertical-align:top;">:</td><td><div></div></td></tr><tr><td style="font-weight:bold;vertical-align:top;">secure</td><td style="vertical-align:top;">:</td><td><div></div></td></tr><tr><td style="font-weight:bold;vertical-align:top;">version</td><td style="vertical-align:top;">:</td><td><div></div></td></tr></table></div></td></tr><tr><td style="font-weight:bold;vertical-align:top;">session_id_eventos</td><td style="vertical-align:top;">:</td><td><div>127.0.0.1-265af069-829d-43f1-b00c-e97b8c243c84<table><tr><td style="font-weight:bold;vertical-align:top;">comment</td><td style="vertical-align:top;">:</td><td><div></div></td></tr><tr><td style="font-weight:bold;vertical-align:top;">domain</td><td style="vertical-align:top;">:</td><td><div></div></td></tr><tr><td style="font-weight:bold;vertical-align:top;">expires</td><td style="vertical-align:top;">:</td><td><div></div></td></tr><tr><td style="font-weight:bold;vertical-align:top;">httponly</td><td style="vertical-align:top;">:</td><td><div></div></td></tr><tr><td style="font-weight:bold;vertical-align:top;">max-age</td><td style="vertical-align:top;">:</td><td><div></div></td></tr><tr><td style="font-weight:bold;vertical-align:top;">path</td><td style="vertical-align:top;">:</td><td><div></div></td></tr><tr><td style="font-weight:bold;vertical-align:top;">secure</td><td style="vertical-align:top;">:</td><td><div></div></td></tr><tr><td style="font-weight:bold;vertical-align:top;">version</td><td style="vertical-align:top;">:</td><td><div></div></td></tr></table></div></td></tr><tr><td style="font-weight:bold;vertical-align:top;">session_id_mapa</td><td style="vertical-align:top;">:</td><td><div>127.0.0.1-b14878db-0664-4f3a-b9d7-312c2f376523<table><tr><td style="font-weight:bold;vertical-align:top;">comment</td><td style="vertical-align:top;">:</td><td><div></div></td></tr><tr><td style="font-weight:bold;vertical-align:top;">domain</td><td style="vertical-align:top;">:</td><td><div></div></td></tr><tr><td style="font-weight:bold;vertical-align:top;">expires</td><td style="vertical-align:top;">:</td><td><div></div></td></tr><tr><td style="font-weight:bold;vertical-align:top;">httponly</td><td style="vertical-align:top;">:</td><td><div></div></td></tr><tr><td style="font-weight:bold;vertical-align:top;">max-age</td><td style="vertical-align:top;">:</td><td><div></div></td></tr><tr><td style="font-weight:bold;vertical-align:top;">path</td><td style="vertical-align:top;">:</td><td><div></div></td></tr><tr><td style="font-weight:bold;vertical-align:top;">secure</td><td style="vertical-align:top;">:</td><td><div></div></td></tr><tr><td style="font-weight:bold;vertical-align:top;">version</td><td style="vertical-align:top;">:</td><td><div></div></td></tr></table></div></td></tr><tr><td style="font-weight:bold;vertical-align:top;">session_id_showroom</td><td style="vertical-align:top;">:</td><td><div>127.0.0.1-8643c9f0-f6b3-4b4c-8238-954bc810845c<table><tr><td style="font-weight:bold;vertical-align:top;">comment</td><td style="vertical-align:top;">:</td><td><div></div></td></tr><tr><td style="font-weight:bold;vertical-align:top;">domain</td><td style="vertical-align:top;">:</td><td><div></div></td></tr><tr><td style="font-weight:bold;vertical-align:top;">expires</td><td style="vertical-align:top;">:</td><td><div></div></td></tr><tr><td style="font-weight:bold;vertical-align:top;">httponly</td><td style="vertical-align:top;">:</td><td><div></div></td></tr><tr><td style="font-weight:bold;vertical-align:top;">max-age</td><td style="vertical-align:top;">:</td><td><div></div></td></tr><tr><td style="font-weight:bold;vertical-align:top;">path</td><td style="vertical-align:top;">:</td><td><div></div></td></tr><tr><td style="font-weight:bold;vertical-align:top;">secure</td><td style="vertical-align:top;">:</td><td><div></div></td></tr><tr><td style="font-weight:bold;vertical-align:top;">version</td><td style="vertical-align:top;">:</td><td><div></div></td></tr></table></div></td></tr><tr><td style="font-weight:bold;vertical-align:top;">session_id_web2social</td><td style="vertical-align:top;">:</td><td><div>127.0.0.1-869e7a2e-bd6b-4988-9521-d0edb84d7ca4<table><tr><td style="font-weight:bold;vertical-align:top;">comment</td><td style="vertical-align:top;">:</td><td><div></div></td></tr><tr><td style="font-weight:bold;vertical-align:top;">domain</td><td style="vertical-align:top;">:</td><td><div></div></td></tr><tr><td style="font-weight:bold;vertical-align:top;">expires</td><td style="vertical-align:top;">:</td><td><div></div></td></tr><tr><td style="font-weight:bold;vertical-align:top;">httponly</td><td style="vertical-align:top;">:</td><td><div></div></td></tr><tr><td style="font-weight:bold;vertical-align:top;">max-age</td><td style="vertical-align:top;">:</td><td><div></div></td></tr><tr><td style="font-weight:bold;vertical-align:top;">path</td><td style="vertical-align:top;">:</td><td><div></div></td></tr><tr><td style="font-weight:bold;vertical-align:top;">secure</td><td style="vertical-align:top;">:</td><td><div></div></td></tr><tr><td style="font-weight:bold;vertical-align:top;">version</td><td style="vertical-align:top;">:</td><td><div></div></td></tr></table></div></td></tr><tr><td style="font-weight:bold;vertical-align:top;">session_id_welcome</td><td style="vertical-align:top;">:</td><td><div>127.0.0.1-bde9b6ea-4f10-4c88-939f-223b9a4b075c<table><tr><td style="font-weight:bold;vertical-align:top;">comment</td><td style="vertical-align:top;">:</td><td><div></div></td></tr><tr><td style="font-weight:bold;vertical-align:top;">domain</td><td style="vertical-align:top;">:</td><td><div></div></td></tr><tr><td style="font-weight:bold;vertical-align:top;">expires</td><td style="vertical-align:top;">:</td><td><div></div></td></tr><tr><td style="font-weight:bold;vertical-align:top;">httponly</td><td style="vertical-align:top;">:</td><td><div></div></td></tr><tr><td style="font-weight:bold;vertical-align:top;">max-age</td><td style="vertical-align:top;">:</td><td><div></div></td></tr><tr><td style="font-weight:bold;vertical-align:top;">path</td><td style="vertical-align:top;">:</td><td><div></div></td></tr><tr><td style="font-weight:bold;vertical-align:top;">secure</td><td style="vertical-align:top;">:</td><td><div></div></td></tr><tr><td style="font-weight:bold;vertical-align:top;">version</td><td style="vertical-align:top;">:</td><td><div></div></td></tr></table></div></td></tr><tr><td style="font-weight:bold;vertical-align:top;">sessionid</td><td style="vertical-align:top;">:</td><td><div>7qk2k19tk2bxn3pdlems71cyzgudglky<table><tr><td style="font-weight:bold;vertical-align:top;">comment</td><td style="vertical-align:top;">:</td><td><div></div></td></tr><tr><td style="font-weight:bold;vertical-align:top;">domain</td><td style="vertical-align:top;">:</td><td><div></div></td></tr><tr><td style="font-weight:bold;vertical-align:top;">expires</td><td style="vertical-align:top;">:</td><td><div></div></td></tr><tr><td style="font-weight:bold;vertical-align:top;">httponly</td><td style="vertical-align:top;">:</td><td><div></div></td></tr><tr><td style="font-weight:bold;vertical-align:top;">max-age</td><td style="vertical-align:top;">:</td><td><div></div></td></tr><tr><td style="font-weight:bold;vertical-align:top;">path</td><td style="vertical-align:top;">:</td><td><div></div></td></tr><tr><td style="font-weight:bold;vertical-align:top;">secure</td><td style="vertical-align:top;">:</td><td><div></div></td></tr><tr><td style="font-weight:bold;vertical-align:top;">version</td><td style="vertical-align:top;">:</td><td><div></div></td></tr></table></div></td></tr></table></div></td></tr><tr><td style="font-weight:bold;vertical-align:top;">env</td><td style="vertical-align:top;">:</td><td><div><table><tr><td style="font-weight:bold;vertical-align:top;">HTTP_ACCEPT</td><td style="vertical-align:top;">:</td><td><div>text/html,application/xhtml+xml,application/xml;q=0.9,image/webp,*/*;q=0.8</div></td></tr><tr><td style="font-weight:bold;vertical-align:top;">HTTP_ACCEPT_ENCODING</td><td style="vertical-align:top;">:</td><td><div>gzip, deflate, sdch</div></td></tr><tr><td style="font-weight:bold;vertical-align:top;">HTTP_ACCEPT_LANGUAGE</td><td style="vertical-align:top;">:</td><td><div>pt-BR,pt;q=0.8,en-US;q=0.6,en;q=0.4</div></td></tr><tr><td style="font-weight:bold;vertical-align:top;">HTTP_CACHE_CONTROL</td><td style="vertical-align:top;">:</td><td><div>max-age=0</div></td></tr><tr><td style="font-weight:bold;vertical-align:top;">HTTP_CONNECTION</td><td style="vertical-align:top;">:</td><td><div>keep-alive</div></td></tr><tr><td style="font-weight:bold;vertical-align:top;">HTTP_COOKIE</td><td style="vertical-align:top;">:</td><td><div>session_id_showroom=127.0.0.1-8643c9f0-f6b3-4b4c-8238-954bc810845c; session_id_web2social=127.0.0.1-869e7a2e-bd6b-4988-9521-d0edb84d7ca4; session_id_mapa=127.0.0.1-b14878db-0664-4f3a-b9d7-312c2f376523; session_id_chamados=127.0.0.1-22a35465-903f-4059-8156-01cd8e20f646; session_id_distancia=127.0.0.1-df36c602-f030-47b9-a620-ab1284350e38; sessionid=7qk2k19tk2bxn3pdlems71cyzgudglky; csrftoken=uqMEz0lg4FL0YUTC4Liab1Ytp07dBK9u; session_id_welcome=127.0.0.1-bde9b6ea-4f10-4c88-939f-223b9a4b075c; session_id_admin=127.0.0.1-7d3557b2-1623-4d08-a556-38c19345f470; session_id_eventos=127.0.0.1-265af069-829d-43f1-b00c-e97b8c243c84</div></td></tr><tr><td style="font-weight:bold;vertical-align:top;">HTTP_HOST</td><td style="vertical-align:top;">:</td><td><div>127.0.0.1:8000</div></td></tr><tr><td style="font-weight:bold;vertical-align:top;">HTTP_REFERER</td><td style="vertical-align:top;">:</td><td><div>http://127.0.0.1:8000/eventos/default/index</div></td></tr><tr><td style="font-weight:bold;vertical-align:top;">HTTP_UPGRADE_INSECURE_REQUESTS</td><td style="vertical-align:top;">:</td><td><div>1</div></td></tr><tr><td style="font-weight:bold;vertical-align:top;">HTTP_USER_AGENT</td><td style="vertical-align:top;">:</td><td><div>Mozilla/5.0 (X11; Linux x86_64) AppleWebKit/537.36 (KHTML, like Gecko) Chrome/51.0.2704.106 Safari/537.36</div></td></tr><tr><td style="font-weight:bold;vertical-align:top;">PATH_INFO</td><td style="vertical-align:top;">:</td><td><div>/eventos/default/home</div></td></tr><tr><td style="font-weight:bold;vertical-align:top;">QUERY_STRING</td><td style="vertical-align:top;">:</td><td><div></div></td></tr><tr><td style="font-weight:bold;vertical-align:top;">REMOTE_ADDR</td><td style="vertical-align:top;">:</td><td><div>127.0.0.1</div></td></tr><tr><td style="font-weight:bold;vertical-align:top;">REMOTE_PORT</td><td style="vertical-align:top;">:</td><td><div>41126</div></td></tr><tr><td style="font-weight:bold;vertical-align:top;">REQUEST_METHOD</td><td style="vertical-align:top;">:</td><td><div>GET</div></td></tr><tr><td style="font-weight:bold;vertical-align:top;">SCRIPT_NAME</td><td style="vertical-align:top;">:</td><td><div></div></td></tr><tr><td style="font-weight:bold;vertical-align:top;">SERVER_NAME</td><td style="vertical-align:top;">:</td><td><div>amauri-note</div></td></tr><tr><td style="font-weight:bold;vertical-align:top;">SERVER_PORT</td><td style="vertical-align:top;">:</td><td><div>8000</div></td></tr><tr><td style="font-weight:bold;vertical-align:top;">SERVER_PROTOCOL</td><td style="vertical-align:top;">:</td><td><div>HTTP/1.1</div></td></tr><tr><td style="font-weight:bold;vertical-align:top;">SERVER_SOFTWARE</td><td style="vertical-align:top;">:</td><td><div>Rocket 1.2.6</div></td></tr><tr><td style="font-weight:bold;vertical-align:top;">app_folders</td><td style="vertical-align:top;">:</td><td><div>set([&#x27;/home/amauri/web2py/applications/admin/&#x27;, &#x27;/home/amauri/web2py/applications/eventos/&#x27;, &#x27;/home/amauri/web2py/applications/welcome/&#x27;])</div></td></tr><tr><td style="font-weight:bold;vertical-align:top;">applications_parent</td><td style="vertical-align:top;">:</td><td><div>/home/amauri/web2py</div></td></tr><tr><td style="font-weight:bold;vertical-align:top;">cmd_args</td><td style="vertical-align:top;">:</td><td><div><table></table></div></td></tr><tr><td style="font-weight:bold;vertical-align:top;">cmd_options</td><td style="vertical-align:top;">:</td><td><div>&lt;Values at 0x7fe4e5d50cb0: {&#x27;verbose&#x27;: False, &#x27;ip&#x27;: &#x27;127.0.0.1&#x27;, &#x27;debuglevel&#x27;: 30, &#x27;with_scheduler&#x27;: False, &#x27;shutdown_timeout&#x27;: 5, &#x27;taskbar&#x27;: False, &#x27;with_coverage&#x27;: False, &#x27;pid_filename&#x27;: &#x27;httpserver.pid&#x27;, &#x27;maxthreads&#x27;: None, &#x27;softcron&#x27;: False, &#x27;server_name&#x27;: &#x27;amauri-note&#x27;, &#x27;bpython&#x27;: False, &#x27;nogui&#x27;: False, &#x27;port&#x27;: 8000, &#x27;print_errors&#x27;: False, &#x27;extcron&#x27;: False, &#x27;runcron&#x27;: False, &#x27;run_system_tests&#x27;: False, &#x27;test&#x27;: None, &#x27;folder&#x27;: &#x27;/home/amauri/web2py&#x27;, &#x27;config&#x27;: &#x27;&#x27;, &#x27;minthreads&#x27;: None, &#x27;shell&#x27;: None, &#x27;run&#x27;: &#x27;&#x27;, &#x27;log_filename&#x27;: &#x27;httpserver.log&#x27;, &#x27;profiler_dir&#x27;: None, &#x27;args&#x27;: [&#x27;&#x27;], &#x27;socket_timeout&#x27;: 5, &#x27;ssl_ca_certificate&#x27;: None, &#x27;scheduler&#x27;: None, &#x27;interfaces&#x27;: None, &#x27;ssl_private_key&#x27;: &#x27;&#x27;, &#x27;gae&#x27;: None, &#x27;password&#x27;: &#x27;******&#x27;, &#x27;request_queue_size&#x27;: 5, &#x27;ssl_certificate&#x27;: &#x27;&#x27;, &#x27;cronjob&#x27;: False, &#x27;numthreads&#x27;: None, &#x27;quiet&#x27;: False, &#x27;import_models&#x27;: False, &#x27;timeout&#x27;: 10, &#x27;plain&#x27;: False, &#x27;nobanner&#x27;: False}&gt;</div></td></tr><tr><td style="font-weight:bold;vertical-align:top;">db_sessions</td><td style="vertical-align:top;">:</td><td><div>set([])</div></td></tr><tr><td style="font-weight:bold;vertical-align:top;">debugging</td><td style="vertical-align:top;">:</td><td><div>False</div></td></tr><tr><td style="font-weight:bold;vertical-align:top;">gluon_parent</td><td style="vertical-align:top;">:</td><td><div>/home/amauri/web2py</div></td></tr><tr><td style="font-weight:bold;vertical-align:top;">http_accept</td><td style="vertical-align:top;">:</td><td><div>text/html,application/xhtml+xml,application/xml;q=0.9,image/webp,*/*;q=0.8</div></td></tr><tr><td style="font-weight:bold;vertical-align:top;">http_accept_encoding</td><td style="vertical-align:top;">:</td><td><div>gzip, deflate, sdch</div></td></tr><tr><td style="font-weight:bold;vertical-align:top;">http_accept_language</td><td style="vertical-align:top;">:</td><td><div>pt-BR,pt;q=0.8,en-US;q=0.6,en;q=0.4</div></td></tr><tr><td style="font-weight:bold;vertical-align:top;">http_cache_control</td><td style="vertical-align:top;">:</td><td><div>max-age=0</div></td></tr><tr><td style="font-weight:bold;vertical-align:top;">http_connection</td><td style="vertical-align:top;">:</td><td><div>keep-alive</div></td></tr><tr><td style="font-weight:bold;vertical-align:top;">http_cookie</td><td style="vertical-align:top;">:</td><td><div>session_id_showroom=127.0.0.1-8643c9f0-f6b3-4b4c-8238-954bc810845c; session_id_web2social=127.0.0.1-869e7a2e-bd6b-4988-9521-d0edb84d7ca4; session_id_mapa=127.0.0.1-b14878db-0664-4f3a-b9d7-312c2f376523; session_id_chamados=127.0.0.1-22a35465-903f-4059-8156-01cd8e20f646; session_id_distancia=127.0.0.1-df36c602-f030-47b9-a620-ab1284350e38; sessionid=7qk2k19tk2bxn3pdlems71cyzgudglky; csrftoken=uqMEz0lg4FL0YUTC4Liab1Ytp07dBK9u; session_id_welcome=127.0.0.1-bde9b6ea-4f10-4c88-939f-223b9a4b075c; session_id_admin=127.0.0.1-7d3557b2-1623-4d08-a556-38c19345f470; session_id_eventos=127.0.0.1-265af069-829d-43f1-b00c-e97b8c243c84</div></td></tr><tr><td style="font-weight:bold;vertical-align:top;">http_host</td><td style="vertical-align:top;">:</td><td><div>127.0.0.1:8000</div></td></tr><tr><td style="font-weight:bold;vertical-align:top;">http_referer</td><td style="vertical-align:top;">:</td><td><div>http://127.0.0.1:8000/eventos/default/index</div></td></tr><tr><td style="font-weight:bold;vertical-align:top;">http_upgrade_insecure_requests</td><td style="vertical-align:top;">:</td><td><div>1</div></td></tr><tr><td style="font-weight:bold;vertical-align:top;">http_user_agent</td><td style="vertical-align:top;">:</td><td><div>Mozilla/5.0 (X11; Linux x86_64) AppleWebKit/537.36 (KHTML, like Gecko) Chrome/51.0.2704.106 Safari/537.36</div></td></tr><tr><td style="font-weight:bold;vertical-align:top;">is_jython</td><td style="vertical-align:top;">:</td><td><div>False</div></td></tr><tr><td style="font-weight:bold;vertical-align:top;">is_pypy</td><td style="vertical-align:top;">:</td><td><div>False</div></td></tr><tr><td style="font-weight:bold;vertical-align:top;">is_source</td><td style="vertical-align:top;">:</td><td><div>True</div></td></tr><tr><td style="font-weight:bold;vertical-align:top;">local_hosts</td><td style="vertical-align:top;">:</td><td><div><table><tr><td><div>127.0.1.1</div></td></tr><tr><td><div>::1</div></td></tr><tr><td><div>amauri-note</div></td></tr><tr><td><div>::ffff:127.0.0.1</div></td></tr><tr><td><div>127.0.0.1</div></td></tr></table></div></td></tr><tr><td style="font-weight:bold;vertical-align:top;">path_info</td><td style="vertical-align:top;">:</td><td><div>/eventos/default/home</div></td></tr><tr><td style="font-weight:bold;vertical-align:top;">query_string</td><td style="vertical-align:top;">:</td><td><div></div></td></tr><tr><td style="font-weight:bold;vertical-align:top;">remote_addr</td><td style="vertical-align:top;">:</td><td><div>127.0.0.1</div></td></tr><tr><td style="font-weight:bold;vertical-align:top;">remote_port</td><td style="vertical-align:top;">:</td><td><div>41126</div></td></tr><tr><td style="font-weight:bold;vertical-align:top;">request_method</td><td style="vertical-align:top;">:</td><td><div>GET</div></td></tr><tr><td style="font-weight:bold;vertical-align:top;">request_uri</td><td style="vertical-align:top;">:</td><td><div>/eventos/default/home</div></td></tr><tr><td style="font-weight:bold;vertical-align:top;">script_name</td><td style="vertical-align:top;">:</td><td><div></div></td></tr><tr><td style="font-weight:bold;vertical-align:top;">server_name</td><td style="vertical-align:top;">:</td><td><div>amauri-note</div></td></tr><tr><td style="font-weight:bold;vertical-align:top;">server_port</td><td style="vertical-align:top;">:</td><td><div>8000</div></td></tr><tr><td style="font-weight:bold;vertical-align:top;">server_protocol</td><td style="vertical-align:top;">:</td><td><div>HTTP/1.1</div></td></tr><tr><td style="font-weight:bold;vertical-align:top;">server_software</td><td style="vertical-align:top;">:</td><td><div>Rocket 1.2.6</div></td></tr><tr><td style="font-weight:bold;vertical-align:top;">web2py_path</td><td style="vertical-align:top;">:</td><td><div>/home/amauri/web2py</div></td></tr><tr><td style="font-weight:bold;vertical-align:top;">web2py_version</td><td style="vertical-align:top;">:</td><td><div>2.14.6-stable+timestamp.2016.05.10.00.21.47</div></td></tr><tr><td style="font-weight:bold;vertical-align:top;">wsgi.errors</td><td style="vertical-align:top;">:</td><td><div>&lt;open file &#x27;&lt;stderr&gt;&#x27;, mode &#x27;w&#x27; at 0x7fe4ecd361e0&gt;</div></td></tr><tr><td style="font-weight:bold;vertical-align:top;">wsgi.file_wrapper</td><td style="vertical-align:top;">:</td><td><div>&lt;class wsgiref.util.FileWrapper at 0x7fe4e5df6530&gt;</div></td></tr><tr><td style="font-weight:bold;vertical-align:top;">wsgi.input</td><td style="vertical-align:top;">:</td><td><div>&lt;socket._fileobject object at 0x7fe4e005a050&gt;</div></td></tr><tr><td style="font-weight:bold;vertical-align:top;">wsgi.multiprocess</td><td style="vertical-align:top;">:</td><td><div>False</div></td></tr><tr><td style="font-weight:bold;vertical-align:top;">wsgi.multithread</td><td style="vertical-align:top;">:</td><td><div>True</div></td></tr><tr><td style="font-weight:bold;vertical-align:top;">wsgi.run_once</td><td style="vertical-align:top;">:</td><td><div>False</div></td></tr><tr><td style="font-weight:bold;vertical-align:top;">wsgi.url_scheme</td><td style="vertical-align:top;">:</td><td><div>http</div></td></tr><tr><td style="font-weight:bold;vertical-align:top;">wsgi.version</td><td style="vertical-align:top;">:</td><td><div><table><tr><td><div>1</div></td></tr><tr><td><div>0</div></td></tr></table></div></td></tr><tr><td style="font-weight:bold;vertical-align:top;">wsgi_errors</td><td style="vertical-align:top;">:</td><td><div>&lt;open file &#x27;&lt;stderr&gt;&#x27;, mode &#x27;w&#x27; at 0x7fe4ecd361e0&gt;</div></td></tr><tr><td style="font-weight:bold;vertical-align:top;">wsgi_file_wrapper</td><td style="vertical-align:top;">:</td><td><div>&lt;class wsgiref.util.FileWrapper at 0x7fe4e5df6530&gt;</div></td></tr><tr><td style="font-weight:bold;vertical-align:top;">wsgi_input</td><td style="vertical-align:top;">:</td><td><div>&lt;socket._fileobject object at 0x7fe4e005a050&gt;</div></td></tr><tr><td style="font-weight:bold;vertical-align:top;">wsgi_multiprocess</td><td style="vertical-align:top;">:</td><td><div>False</div></td></tr><tr><td style="font-weight:bold;vertical-align:top;">wsgi_multithread</td><td style="vertical-align:top;">:</td><td><div>True</div></td></tr><tr><td style="font-weight:bold;vertical-align:top;">wsgi_run_once</td><td style="vertical-align:top;">:</td><td><div>False</div></td></tr><tr><td style="font-weight:bold;vertical-align:top;">wsgi_url_scheme</td><td style="vertical-align:top;">:</td><td><div>http</div></td></tr><tr><td style="font-weight:bold;vertical-align:top;">wsgi_version</td><td style="vertical-align:top;">:</td><td><div><table><tr><td><div>1</div></td></tr><tr><td><div>0</div></td></tr></table></div></td></tr></table></div></td></tr><tr><td style="font-weight:bold;vertical-align:top;">extension</td><td style="vertical-align:top;">:</td><td><div>html</div></td></tr><tr><td style="font-weight:bold;vertical-align:top;">folder</td><td style="vertical-align:top;">:</td><td><div>/home/amauri/web2py/applications/eventos/</div></td></tr><tr><td style="font-weight:bold;vertical-align:top;">function</td><td style="vertical-align:top;">:</td><td><div>home</div></td></tr><tr><td style="font-weight:bold;vertical-align:top;">global_settings</td><td style="vertical-align:top;">:</td><td><div><table><tr><td style="font-weight:bold;vertical-align:top;">app_folders</td><td style="vertical-align:top;">:</td><td><div>set([&#x27;/home/amauri/web2py/applications/admin/&#x27;, &#x27;/home/amauri/web2py/applications/eventos/&#x27;, &#x27;/home/amauri/web2py/applications/welcome/&#x27;])</div></td></tr><tr><td style="font-weight:bold;vertical-align:top;">applications_parent</td><td style="vertical-align:top;">:</td><td><div>/home/amauri/web2py</div></td></tr><tr><td style="font-weight:bold;vertical-align:top;">cmd_args</td><td style="vertical-align:top;">:</td><td><div><table></table></div></td></tr><tr><td style="font-weight:bold;vertical-align:top;">cmd_options</td><td style="vertical-align:top;">:</td><td><div>&lt;Values at 0x7fe4e5d50cb0: {&#x27;verbose&#x27;: False, &#x27;ip&#x27;: &#x27;127.0.0.1&#x27;, &#x27;debuglevel&#x27;: 30, &#x27;with_scheduler&#x27;: False, &#x27;shutdown_timeout&#x27;: 5, &#x27;taskbar&#x27;: False, &#x27;with_coverage&#x27;: False, &#x27;pid_filename&#x27;: &#x27;httpserver.pid&#x27;, &#x27;maxthreads&#x27;: None, &#x27;softcron&#x27;: False, &#x27;server_name&#x27;: &#x27;amauri-note&#x27;, &#x27;bpython&#x27;: False, &#x27;nogui&#x27;: False, &#x27;port&#x27;: 8000, &#x27;print_errors&#x27;: False, &#x27;extcron&#x27;: False, &#x27;runcron&#x27;: False, &#x27;run_system_tests&#x27;: False, &#x27;test&#x27;: None, &#x27;folder&#x27;: &#x27;/home/amauri/web2py&#x27;, &#x27;config&#x27;: &#x27;&#x27;, &#x27;minthreads&#x27;: None, &#x27;shell&#x27;: None, &#x27;run&#x27;: &#x27;&#x27;, &#x27;log_filename&#x27;: &#x27;httpserver.log&#x27;, &#x27;profiler_dir&#x27;: None, &#x27;args&#x27;: [&#x27;&#x27;], &#x27;socket_timeout&#x27;: 5, &#x27;ssl_ca_certificate&#x27;: None, &#x27;scheduler&#x27;: None, &#x27;interfaces&#x27;: None, &#x27;ssl_private_key&#x27;: &#x27;&#x27;, &#x27;gae&#x27;: None, &#x27;password&#x27;: &#x27;******&#x27;, &#x27;request_queue_size&#x27;: 5, &#x27;ssl_certificate&#x27;: &#x27;&#x27;, &#x27;cronjob&#x27;: False, &#x27;numthreads&#x27;: None, &#x27;quiet&#x27;: False, &#x27;import_models&#x27;: False, &#x27;timeout&#x27;: 10, &#x27;plain&#x27;: False, &#x27;nobanner&#x27;: False}&gt;</div></td></tr><tr><td style="font-weight:bold;vertical-align:top;">db_sessions</td><td style="vertical-align:top;">:</td><td><div>set([])</div></td></tr><tr><td style="font-weight:bold;vertical-align:top;">debugging</td><td style="vertical-align:top;">:</td><td><div>False</div></td></tr><tr><td style="font-weight:bold;vertical-align:top;">gluon_parent</td><td style="vertical-align:top;">:</td><td><div>/home/amauri/web2py</div></td></tr><tr><td style="font-weight:bold;vertical-align:top;">is_jython</td><td style="vertical-align:top;">:</td><td><div>False</div></td></tr><tr><td style="font-weight:bold;vertical-align:top;">is_pypy</td><td style="vertical-align:top;">:</td><td><div>False</div></td></tr><tr><td style="font-weight:bold;vertical-align:top;">is_source</td><td style="vertical-align:top;">:</td><td><div>True</div></td></tr><tr><td style="font-weight:bold;vertical-align:top;">local_hosts</td><td style="vertical-align:top;">:</td><td><div><table><tr><td><div>127.0.1.1</div></td></tr><tr><td><div>::1</div></td></tr><tr><td><div>amauri-note</div></td></tr><tr><td><div>::ffff:127.0.0.1</div></td></tr><tr><td><div>127.0.0.1</div></td></tr></table></div></td></tr><tr><td style="font-weight:bold;vertical-align:top;">web2py_version</td><td style="vertical-align:top;">:</td><td><div>2.14.6-stable+timestamp.2016.05.10.00.21.47</div></td></tr></table></div></td></tr><tr><td style="font-weight:bold;vertical-align:top;">is_https</td><td style="vertical-align:top;">:</td><td><div>False</div></td></tr><tr><td style="font-weight:bold;vertical-align:top;">is_local</td><td style="vertical-align:top;">:</td><td><div>True</div></td></tr><tr><td style="font-weight:bold;vertical-align:top;">is_restful</td><td style="vertical-align:top;">:</td><td><div>False</div></td></tr><tr><td style="font-weight:bold;vertical-align:top;">is_scheduler</td><td style="vertical-align:top;">:</td><td><div>False</div></td></tr><tr><td style="font-weight:bold;vertical-align:top;">is_shell</td><td style="vertical-align:top;">:</td><td><div>False</div></td></tr><tr><td style="font-weight:bold;vertical-align:top;">now</td><td style="vertical-align:top;">:</td><td><div>datetime.datetime(2016, 9, 1, 1, 18, 46, 522289)</div></td></tr><tr><td style="font-weight:bold;vertical-align:top;">raw_args</td><td style="vertical-align:top;">:</td><td><div></div></td></tr><tr><td style="font-weight:bold;vertical-align:top;">raw_extension</td><td style="vertical-align:top;">:</td><td><div>None</div></td></tr><tr><td style="font-weight:bold;vertical-align:top;">url</td><td style="vertical-align:top;">:</td><td><div>/eventos/default/home</div></td></tr><tr><td style="font-weight:bold;vertical-align:top;">utcnow</td><td style="vertical-align:top;">:</td><td><div>datetime.datetime(2016, 9, 1, 4, 18, 46, 522307)</div></td></tr><tr><td style="font-weight:bold;vertical-align:top;">wsgi</td><td style="vertical-align:top;">:</td><td><div>&lt;gluon.main.LazyWSGI object at 0x7fe4e059b190&gt;</div></td></tr></table></div>'
tRp58
sS'frames'
p59
(lp60
(dp61
S'file'
p62
S'/home/amauri/web2py/gluon/restricted.py'
p63
sS'dump'
p64
(dp65
S'environment'
p66
S"{'A': <class 'gluon.html.A'>, 'ANY_OF': <class 'gluon.validators.ANY_OF'>, 'ASSIGNJS': <function ASSIGNJS>, 'AppConfig': <function AppConfig>, 'Auth': <class 'gluon.tools.Auth'>, 'B': <class 'gluon.html.B'>, 'BEAUTIFY': <class 'gluon.html.BEAUTIFY'>, 'BODY': <class 'gluon.html.BODY'>, 'BR': <class 'gluon.html.BR'>, 'BUTTON': <class 'gluon.html.BUTTON'>, ...}"
p67
sS'ccode'
p68
S'<code object <module> at 0x7fe4c056e6b0, file "/...cations/eventos/views/default/home.html", line 1>'
p69
ssS'lnum'
p70
I227
sS'lines'
p71
(dp72
I224
S'            ccode = code'
p73
sI225
S'        else:'
p74
sI226
S'            ccode = compile2(code, layer)'
p75
sI227
S'        exec ccode in environment'
p76
sI228
S'    except HTTP:'
p77
sI229
S'        raise'
p78
sI230
S'    except RestrictedError:'
p79
sI231
S'        # do not encapsulate (obfuscate) the original RestrictedError'
p80
sI222
S'    try:'
p81
sI223
S'        if isinstance(code, types.CodeType):'
p82
ssS'call'
p83
S'(code=\'response.write(\\\'<!DOCTYPE html>\\\\n<html lang="pt-...(\\\'"></script>\\\\n  </body>\\\\n</html>\\\', escape=False)\', environment={\'A\': <class \'gluon.html.A\'>, \'ANY_OF\': <class \'gluon.validators.ANY_OF\'>, \'ASSIGNJS\': <function ASSIGNJS>, \'AppConfig\': <function AppConfig>, \'Auth\': <class \'gluon.tools.Auth\'>, \'B\': <class \'gluon.html.B\'>, \'BEAUTIFY\': <class \'gluon.html.BEAUTIFY\'>, \'BODY\': <class \'gluon.html.BODY\'>, \'BR\': <class \'gluon.html.BR\'>, \'BUTTON\': <class \'gluon.html.BUTTON\'>, ...}, layer=\'/home/amauri/web2py/applications/eventos/views/default/home.html\')'
p84
sS'func'
p85
S'restricted'
p86
sa(dp87
g62
S'/home/amauri/web2py/applications/eventos/views/default/home.html'
p88
sg64
(dp89
S'div'
p90
S'undefined'
p91
ssg70
I29
sg71
(dp92
I32
S'response.write(\'"><span class="badge">15</span></a>\\n<!--args=db.auth_user.fotoPerfil-->\\n                    <ul class="dropdown-menu">\\n                        <li><a href="\', escape=False)'
p93
sI33
S"response.write(URL('user/register'))"
p94
sI34
S'response.write(\'">Login</a></li>\\n                        <li><a href="\', escape=False)'
p95
sI35
S"response.write(URL('user/profile'))"
p96
sI36
S'response.write(\'">Perfil</a></li>\\n                        <li><a href="\', escape=False)'
p97
sI37
S"response.write(URL('painel'))"
p98
sI38
S'response.write(\'">Gerenciamento</a></li>\\n                        <li><a href="\', escape=False)'
p99
sI39
S"response.write(URL('user/logout'))"
p100
sI20
S"response.files.insert(1,URL('static','css/calendar.css'))"
p101
sI21
S"response.files.insert(2,URL('static','js/calendar.js'))"
p102
sI22
S"response.files.insert(3,URL('static','js/web2py.js'))"
p103
sI23
S'response.include_meta()'
p104
sI24
S'response.include_files()'
p105
sI25
S"response.write('\\n', escape=False)"
p106
sI26
S'response.write(\'\\n  </head>\\n  <body data-spy="scroll" data-target=".menu-navegacao" data-offset="80">\\n\\n      <!-- Menu da Aplica\\xc3\\xa7\\xc3\\xa3o -->\\n      <nav class="navbar navbar-inverse navbar-fixed-top" role="navigation">\\n        <div class="container-fluid">\\n            <div class="navbar-header centro">\\n                <button type="button" class="navbar-toggle collapsed" data-toggle="collapse" data-target="#menu-navegacao" aria-expanded="false" aria-controls="navbar">\\n                    <span class="icon-bar"></span>\\n                    <span class="icon-bar"></span>\\n                    <span class="icon-bar"></span>\\n                </button>\\n                <div class="navbar-header centro">\\n                    <a class="navbar-brand" href="#">Primos do S\\xc3\\xadtio</a>\\n                    <span class="badge-container">\\n                    <a href="#" class="dropdown-toggle" data-toggle="dropdown" role="button" aria-haspopup="false" aria-expanded="false">\\n                <!--<img src="\', escape=False)'
p107
sI27
S"response.write(URL('static','img/userAnonymous.png'))"
p108
sI28
S'response.write(\'" alt="Perfil do Usu\\xc3\\xa1rio" class="avatar img-circle"></a>-->\\n                    <img src="\', escape=False)'
p109
sI29
S"response.write(URL('download', args='%(fotoPerfil)s' %(auth.user)) | ('static','img/userAnonymous.png'))"
p110
sI30
S'response.write(\'" alt="Perfil do Usu\\xc3\\xa1rio" class="avatar img-circle"></a>\\n                    <a href="\', escape=False)'
p111
sI31
S"response.write(URL('home'))"
p112
ssg83
S'()'
p113
sg85
S'<module>'
p114
sasS'pyver'
p115
S'Python 2.7.12: /usr/bin/python (prefix: /usr)'
p116
sS'session'
p117
g57
(S'sm\x0c\x00\x00<div><table><tr><td style="font-weight:bold;vertical-align:top;">auth</td><td style="vertical-align:top;">:</td><td><div><table><tr><td style="font-weight:bold;vertical-align:top;">expiration</td><td style="vertical-align:top;">:</td><td><div>3600</div></td></tr><tr><td style="font-weight:bold;vertical-align:top;">hmac_key</td><td style="vertical-align:top;">:</td><td><div>0a320b28-0851-4911-8bb4-5a61de45ef0b</div></td></tr><tr><td style="font-weight:bold;vertical-align:top;">last_visit</td><td style="vertical-align:top;">:</td><td><div>datetime.datetime(2016, 9, 1, 1, 14, 54, 674948)</div></td></tr><tr><td style="font-weight:bold;vertical-align:top;">remember_me</td><td style="vertical-align:top;">:</td><td><div>False</div></td></tr><tr><td style="font-weight:bold;vertical-align:top;">user</td><td style="vertical-align:top;">:</td><td><div><table><tr><td style="font-weight:bold;vertical-align:top;">created_by</td><td style="vertical-align:top;">:</td><td><div>None</div></td></tr><tr><td style="font-weight:bold;vertical-align:top;">created_on</td><td style="vertical-align:top;">:</td><td><div>datetime.datetime(2016, 8, 31, 14, 15, 6)</div></td></tr><tr><td style="font-weight:bold;vertical-align:top;">email</td><td style="vertical-align:top;">:</td><td><div>amaurirg@terra.com.br</div></td></tr><tr><td style="font-weight:bold;vertical-align:top;">first_name</td><td style="vertical-align:top;">:</td><td><div>Amauri</div></td></tr><tr><td style="font-weight:bold;vertical-align:top;">fotoPerfil</td><td style="vertical-align:top;">:</td><td><div></div></td></tr><tr><td style="font-weight:bold;vertical-align:top;">id</td><td style="vertical-align:top;">:</td><td><div>1L</div></td></tr><tr><td style="font-weight:bold;vertical-align:top;">is_active</td><td style="vertical-align:top;">:</td><td><div>True</div></td></tr><tr><td style="font-weight:bold;vertical-align:top;">last_name</td><td style="vertical-align:top;">:</td><td><div>Rossetti Giovani</div></td></tr><tr><td style="font-weight:bold;vertical-align:top;">modified_by</td><td style="vertical-align:top;">:</td><td><div>1L</div></td></tr><tr><td style="font-weight:bold;vertical-align:top;">modified_on</td><td style="vertical-align:top;">:</td><td><div>datetime.datetime(2016, 9, 1, 0, 42, 48)</div></td></tr><tr><td style="font-weight:bold;vertical-align:top;">registration_id</td><td style="vertical-align:top;">:</td><td><div></div></td></tr><tr><td style="font-weight:bold;vertical-align:top;">registration_key</td><td style="vertical-align:top;">:</td><td><div></div></td></tr><tr><td style="font-weight:bold;vertical-align:top;">reset_password_key</td><td style="vertical-align:top;">:</td><td><div></div></td></tr><tr><td style="font-weight:bold;vertical-align:top;">username</td><td style="vertical-align:top;">:</td><td><div>amaurirg</div></td></tr></table></div></td></tr><tr><td style="font-weight:bold;vertical-align:top;">user_groups</td><td style="vertical-align:top;">:</td><td><div><table></table></div></td></tr></table></div></td></tr><tr><td style="font-weight:bold;vertical-align:top;">flash</td><td style="vertical-align:top;">:</td><td><div>None</div></td></tr></table></div>'
tRp118
sS'etype'
p119
S"<type 'exceptions.TypeError'>"
p120
sS'date'
p121
S'Thu Sep  1 01:18:46 2016'
p122
sS'response'
p123
g57
(S's\x9c@\x00\x00<div><table><tr><td style="font-weight:bold;vertical-align:top;">body</td><td style="vertical-align:top;">:</td><td><div>&lt;cStringIO.StringO object at 0x7fe4c0fac1b8&gt;</div></td></tr><tr><td style="font-weight:bold;vertical-align:top;">cookies</td><td style="vertical-align:top;">:</td><td><div><table><tr><td style="font-weight:bold;vertical-align:top;">session_id_eventos</td><td style="vertical-align:top;">:</td><td><div>127.0.0.1-265af069-829d-43f1-b00c-e97b8c243c84<table><tr><td style="font-weight:bold;vertical-align:top;">comment</td><td style="vertical-align:top;">:</td><td><div></div></td></tr><tr><td style="font-weight:bold;vertical-align:top;">domain</td><td style="vertical-align:top;">:</td><td><div></div></td></tr><tr><td style="font-weight:bold;vertical-align:top;">expires</td><td style="vertical-align:top;">:</td><td><div></div></td></tr><tr><td style="font-weight:bold;vertical-align:top;">httponly</td><td style="vertical-align:top;">:</td><td><div></div></td></tr><tr><td style="font-weight:bold;vertical-align:top;">max-age</td><td style="vertical-align:top;">:</td><td><div></div></td></tr><tr><td style="font-weight:bold;vertical-align:top;">path</td><td style="vertical-align:top;">:</td><td><div>/</div></td></tr><tr><td style="font-weight:bold;vertical-align:top;">secure</td><td style="vertical-align:top;">:</td><td><div></div></td></tr><tr><td style="font-weight:bold;vertical-align:top;">version</td><td style="vertical-align:top;">:</td><td><div></div></td></tr></table></div></td></tr></table></div></td></tr><tr><td style="font-weight:bold;vertical-align:top;">delimiters</td><td style="vertical-align:top;">:</td><td><div><table><tr><td><div>{{</div></td></tr><tr><td><div>}}</div></td></tr></table></div></td></tr><tr><td style="font-weight:bold;vertical-align:top;">files</td><td style="vertical-align:top;">:</td><td><div><table><tr><td><div>/eventos/static/js/jquery.js</div></td></tr><tr><td><div>/eventos/static/css/calendar.css</div></td></tr><tr><td><div>/eventos/static/js/calendar.js</div></td></tr><tr><td><div>/eventos/static/js/web2py.js</div></td></tr></table></div></td></tr><tr><td style="font-weight:bold;vertical-align:top;">flash</td><td style="vertical-align:top;">:</td><td><div></div></td></tr><tr><td style="font-weight:bold;vertical-align:top;">form_label_separator</td><td style="vertical-align:top;">:</td><td><div></div></td></tr><tr><td style="font-weight:bold;vertical-align:top;">formstyle</td><td style="vertical-align:top;">:</td><td><div>bootstrap3_inline</div></td></tr><tr><td style="font-weight:bold;vertical-align:top;">generic_patterns</td><td style="vertical-align:top;">:</td><td><div><table><tr><td><div>*</div></td></tr></table></div></td></tr><tr><td style="font-weight:bold;vertical-align:top;">google_analytics_id</td><td style="vertical-align:top;">:</td><td><div>None</div></td></tr><tr><td style="font-weight:bold;vertical-align:top;">headers</td><td style="vertical-align:top;">:</td><td><div><table><tr><td style="font-weight:bold;vertical-align:top;">X-Powered-By</td><td style="vertical-align:top;">:</td><td><div>web2py</div></td></tr></table></div></td></tr><tr><td style="font-weight:bold;vertical-align:top;">logo</td><td style="vertical-align:top;">:</td><td><div><a class="navbar-brand" href="http://www.web2py.com/" id="web2py-logo"><b>web<span>2</span>py</b>&trade;&nbsp;</a></div></td></tr><tr><td style="font-weight:bold;vertical-align:top;">menu</td><td style="vertical-align:top;">:</td><td><div><table><tr><td><div><table><tr><td><div>Principal</div></td></tr><tr><td><div>False</div></td></tr><tr><td><div>/eventos/default/index</div></td></tr><tr><td><div><table></table></div></td></tr></table></div></td></tr><tr><td><div><table><tr><td><div>Meus sites</div></td></tr><tr><td><div>False</div></td></tr><tr><td><div>/admin/default/site</div></td></tr></table></div></td></tr><tr><td><div><table><tr><td><div>Esta aplica\xc3\xa7\xc3\xa3o</div></td></tr><tr><td><div>False</div></td></tr><tr><td><div>#</div></td></tr><tr><td><div><table><tr><td><div><table><tr><td><div>Design</div></td></tr><tr><td><div>False</div></td></tr><tr><td><div>/admin/default/design/eventos</div></td></tr></table></div></td></tr><tr><td><div><li class="divider"></li></div></td></tr><tr><td><div><table><tr><td><div>Controlador</div></td></tr><tr><td><div>False</div></td></tr><tr><td><div>/admin/default/edit/eventos/controllers/default.py</div></td></tr></table></div></td></tr><tr><td><div><table><tr><td><div>Visualiza\xc3\xa7\xc3\xa3o</div></td></tr><tr><td><div>False</div></td></tr><tr><td><div>/admin/default/edit/eventos/views/default/home.html</div></td></tr></table></div></td></tr><tr><td><div><table><tr><td><div>Modelo BD</div></td></tr><tr><td><div>False</div></td></tr><tr><td><div>/admin/default/edit/eventos/models/db.py</div></td></tr></table></div></td></tr><tr><td><div><table><tr><td><div>Modelo de Menu</div></td></tr><tr><td><div>False</div></td></tr><tr><td><div>/admin/default/edit/eventos/models/menu.py</div></td></tr></table></div></td></tr><tr><td><div><table><tr><td><div>Config.ini</div></td></tr><tr><td><div>False</div></td></tr><tr><td><div>/admin/default/edit/eventos/private/appconfig.ini</div></td></tr></table></div></td></tr><tr><td><div><table><tr><td><div>Layout</div></td></tr><tr><td><div>False</div></td></tr><tr><td><div>/admin/default/edit/eventos/views/layout.html</div></td></tr></table></div></td></tr><tr><td><div><table><tr><td><div>Folha de estilo</div></td></tr><tr><td><div>False</div></td></tr><tr><td><div>/admin/default/edit/eventos/static/css/web2py-bootstrap3.css</div></td></tr></table></div></td></tr><tr><td><div><table><tr><td><div>banco de dados</div></td></tr><tr><td><div>False</div></td></tr><tr><td><div>/eventos/appadmin/index</div></td></tr></table></div></td></tr><tr><td><div><table><tr><td><div>Erros</div></td></tr><tr><td><div>False</div></td></tr><tr><td><div>/admin/default/errors/eventos</div></td></tr></table></div></td></tr><tr><td><div><table><tr><td><div>Sobre</div></td></tr><tr><td><div>False</div></td></tr><tr><td><div>/admin/default/about/eventos</div></td></tr></table></div></td></tr></table></div></td></tr></table></div></td></tr><tr><td><div><table><tr><td><div>web2py.com</div></td></tr><tr><td><div>False</div></td></tr><tr><td><div>#</div></td></tr><tr><td><div><table><tr><td><div><table><tr><td><div>Download</div></td></tr><tr><td><div>False</div></td></tr><tr><td><div>http://www.web2py.com/examples/default/download</div></td></tr></table></div></td></tr><tr><td><div><table><tr><td><div>Suporte</div></td></tr><tr><td><div>False</div></td></tr><tr><td><div>http://www.web2py.com/examples/default/support</div></td></tr></table></div></td></tr><tr><td><div><table><tr><td><div>Demo</div></td></tr><tr><td><div>False</div></td></tr><tr><td><div>http://web2py.com/demo_admin</div></td></tr></table></div></td></tr><tr><td><div><table><tr><td><div>Exemplos r\xc3\xa1pidos</div></td></tr><tr><td><div>False</div></td></tr><tr><td><div>http://web2py.com/examples/default/examples</div></td></tr></table></div></td></tr><tr><td><div><table><tr><td><div>Perguntas frequentes</div></td></tr><tr><td><div>False</div></td></tr><tr><td><div>http://web2py.com/AlterEgo</div></td></tr></table></div></td></tr><tr><td><div><table><tr><td><div>V\xc3\xaddeos</div></td></tr><tr><td><div>False</div></td></tr><tr><td><div>http://www.web2py.com/examples/default/videos/</div></td></tr></table></div></td></tr><tr><td><div><table><tr><td><div>Aplica\xc3\xa7\xc3\xb5es gratuitas</div></td></tr><tr><td><div>False</div></td></tr><tr><td><div>http://web2py.com/appliances</div></td></tr></table></div></td></tr><tr><td><div><table><tr><td><div>Plugins</div></td></tr><tr><td><div>False</div></td></tr><tr><td><div>http://web2py.com/plugins</div></td></tr></table></div></td></tr><tr><td><div><table><tr><td><div>Receitas</div></td></tr><tr><td><div>False</div></td></tr><tr><td><div>http://web2pyslices.com/</div></td></tr></table></div></td></tr></table></div></td></tr></table></div></td></tr><tr><td><div><table><tr><td><div>Documenta\xc3\xa7\xc3\xa3o</div></td></tr><tr><td><div>False</div></td></tr><tr><td><div>#</div></td></tr><tr><td><div><table><tr><td><div><table><tr><td><div>Online book</div></td></tr><tr><td><div>False</div></td></tr><tr><td><div>http://www.web2py.com/book</div></td></tr></table></div></td></tr><tr><td><div><li class="divider"></li></div></td></tr><tr><td><div><table><tr><td><div>Pref\xc3\xa1cio</div></td></tr><tr><td><div>False</div></td></tr><tr><td><div>http://www.web2py.com/book/default/chapter/00</div></td></tr></table></div></td></tr><tr><td><div><table><tr><td><div>Introdu\xc3\xa7\xc3\xa3o</div></td></tr><tr><td><div>False</div></td></tr><tr><td><div>http://www.web2py.com/book/default/chapter/01</div></td></tr></table></div></td></tr><tr><td><div><table><tr><td><div>Python</div></td></tr><tr><td><div>False</div></td></tr><tr><td><div>http://www.web2py.com/book/default/chapter/02</div></td></tr></table></div></td></tr><tr><td><div><table><tr><td><div>Vis\xc3\xa3o Geral</div></td></tr><tr><td><div>False</div></td></tr><tr><td><div>http://www.web2py.com/book/default/chapter/03</div></td></tr></table></div></td></tr><tr><td><div><table><tr><td><div>The Core</div></td></tr><tr><td><div>False</div></td></tr><tr><td><div>http://www.web2py.com/book/default/chapter/04</div></td></tr></table></div></td></tr><tr><td><div><table><tr><td><div>As views</div></td></tr><tr><td><div>False</div></td></tr><tr><td><div>http://www.web2py.com/book/default/chapter/05</div></td></tr></table></div></td></tr><tr><td><div><table><tr><td><div>banco de dados</div></td></tr><tr><td><div>False</div></td></tr><tr><td><div>http://www.web2py.com/book/default/chapter/06</div></td></tr></table></div></td></tr><tr><td><div><table><tr><td><div>Formul\xc3\xa1rios e Validadores</div></td></tr><tr><td><div>False</div></td></tr><tr><td><div>http://www.web2py.com/book/default/chapter/07</div></td></tr></table></div></td></tr><tr><td><div><table><tr><td><div>Email e SMS</div></td></tr><tr><td><div>False</div></td></tr><tr><td><div>http://www.web2py.com/book/default/chapter/08</div></td></tr></table></div></td></tr><tr><td><div><table><tr><td><div>Controle de Acesso</div></td></tr><tr><td><div>False</div></td></tr><tr><td><div>http://www.web2py.com/book/default/chapter/09</div></td></tr></table></div></td></tr><tr><td><div><table><tr><td><div>Servi\xc3\xa7o</div></td></tr><tr><td><div>False</div></td></tr><tr><td><div>http://www.web2py.com/book/default/chapter/10</div></td></tr></table></div></td></tr><tr><td><div><table><tr><td><div>Receitas de Ajax</div></td></tr><tr><td><div>False</div></td></tr><tr><td><div>http://www.web2py.com/book/default/chapter/11</div></td></tr></table></div></td></tr><tr><td><div><table><tr><td><div>Componentes e Plugins</div></td></tr><tr><td><div>False</div></td></tr><tr><td><div>http://www.web2py.com/book/default/chapter/12</div></td></tr></table></div></td></tr><tr><td><div><table><tr><td><div>Receitas de deploy</div></td></tr><tr><td><div>False</div></td></tr><tr><td><div>http://www.web2py.com/book/default/chapter/13</div></td></tr></table></div></td></tr><tr><td><div><table><tr><td><div>Outras Receitas</div></td></tr><tr><td><div>False</div></td></tr><tr><td><div>http://www.web2py.com/book/default/chapter/14</div></td></tr></table></div></td></tr><tr><td><div><table><tr><td><div>Helping web2py</div></td></tr><tr><td><div>False</div></td></tr><tr><td><div>http://www.web2py.com/book/default/chapter/15</div></td></tr></table></div></td></tr><tr><td><div><table><tr><td><div>Buy web2py\'s book</div></td></tr><tr><td><div>False</div></td></tr><tr><td><div>http://stores.lulu.com/web2py</div></td></tr></table></div></td></tr></table></div></td></tr></table></div></td></tr><tr><td><div><table><tr><td><div>Comunidade</div></td></tr><tr><td><div>False</div></td></tr><tr><td><div>None</div></td></tr><tr><td><div><table><tr><td><div><table><tr><td><div>Grupos</div></td></tr><tr><td><div>False</div></td></tr><tr><td><div>http://www.web2py.com/examples/default/usergroups</div></td></tr></table></div></td></tr><tr><td><div><table><tr><td><div>Twitter</div></td></tr><tr><td><div>False</div></td></tr><tr><td><div>http://twitter.com/web2py</div></td></tr></table></div></td></tr><tr><td><div><table><tr><td><div>Chat ao vivo</div></td></tr><tr><td><div>False</div></td></tr><tr><td><div>http://webchat.freenode.net/?channels=web2py</div></td></tr></table></div></td></tr></table></div></td></tr></table></div></td></tr></table></div></td></tr><tr><td style="font-weight:bold;vertical-align:top;">meta</td><td style="vertical-align:top;">:</td><td><div><table><tr><td style="font-weight:bold;vertical-align:top;">author</td><td style="vertical-align:top;">:</td><td><div>Your Name &lt;you@example.com&gt;</div></td></tr><tr><td style="font-weight:bold;vertical-align:top;">description</td><td style="vertical-align:top;">:</td><td><div>a cool new app</div></td></tr><tr><td style="font-weight:bold;vertical-align:top;">generator</td><td style="vertical-align:top;">:</td><td><div>Web2py Web Framework</div></td></tr><tr><td style="font-weight:bold;vertical-align:top;">keywords</td><td style="vertical-align:top;">:</td><td><div><table><tr><td><div>web2py</div></td></tr><tr><td><div>python</div></td></tr><tr><td><div>framework</div></td></tr></table></div></td></tr></table></div></td></tr><tr><td style="font-weight:bold;vertical-align:top;">models_to_run</td><td style="vertical-align:top;">:</td><td><div><table><tr><td><div>^\\w+\\.py$</div></td></tr><tr><td><div>^default/\\w+\\.py$</div></td></tr><tr><td><div>^default/home/\\w+\\.py$</div></td></tr></table></div></td></tr><tr><td style="font-weight:bold;vertical-align:top;">postprocessing</td><td style="vertical-align:top;">:</td><td><div><table></table></div></td></tr><tr><td style="font-weight:bold;vertical-align:top;">session_client</td><td style="vertical-align:top;">:</td><td><div>127.0.0.1</div></td></tr><tr><td style="font-weight:bold;vertical-align:top;">session_cookie_compression_level</td><td style="vertical-align:top;">:</td><td><div>None</div></td></tr><tr><td style="font-weight:bold;vertical-align:top;">session_cookie_expires</td><td style="vertical-align:top;">:</td><td><div>None</div></td></tr><tr><td style="font-weight:bold;vertical-align:top;">session_data_name</td><td style="vertical-align:top;">:</td><td><div>session_data_eventos</div></td></tr><tr><td style="font-weight:bold;vertical-align:top;">session_file</td><td style="vertical-align:top;">:</td><td><div>&lt;open file &#x27;/home/amauri/web2py/applications/eventos/sessions/077/094/127.0.0.1-265af069-829d-43f1-b00c-e97b8c243c84&#x27;, mode &#x27;rb+&#x27; at 0x7fe4e0055d20&gt;</div></td></tr><tr><td style="font-weight:bold;vertical-align:top;">session_filename</td><td style="vertical-align:top;">:</td><td><div>/home/amauri/web2py/applications/eventos/sessions/127.0.0.1-265af069-829d-43f1-b00c-e97b8c243c84</div></td></tr><tr><td style="font-weight:bold;vertical-align:top;">session_hash</td><td style="vertical-align:top;">:</td><td><div>7fb68142a946f6d1282c7fbdcb91d4d8</div></td></tr><tr><td style="font-weight:bold;vertical-align:top;">session_id</td><td style="vertical-align:top;">:</td><td><div>127.0.0.1-265af069-829d-43f1-b00c-e97b8c243c84</div></td></tr><tr><td style="font-weight:bold;vertical-align:top;">session_id_name</td><td style="vertical-align:top;">:</td><td><div>session_id_eventos</div></td></tr><tr><td style="font-weight:bold;vertical-align:top;">session_locked</td><td style="vertical-align:top;">:</td><td><div>True</div></td></tr><tr><td style="font-weight:bold;vertical-align:top;">session_masterapp</td><td style="vertical-align:top;">:</td><td><div>eventos</div></td></tr><tr><td style="font-weight:bold;vertical-align:top;">session_new</td><td style="vertical-align:top;">:</td><td><div>False</div></td></tr><tr><td style="font-weight:bold;vertical-align:top;">session_storage_type</td><td style="vertical-align:top;">:</td><td><div>file</div></td></tr><tr><td style="font-weight:bold;vertical-align:top;">status</td><td style="vertical-align:top;">:</td><td><div>200</div></td></tr><tr><td style="font-weight:bold;vertical-align:top;">subtitle</td><td style="vertical-align:top;">:</td><td><div></div></td></tr><tr><td style="font-weight:bold;vertical-align:top;">title</td><td style="vertical-align:top;">:</td><td><div>Eventos</div></td></tr><tr><td style="font-weight:bold;vertical-align:top;">view</td><td style="vertical-align:top;">:</td><td><div>default/home.html</div></td></tr></table></div>'
tRp124
sS'locals'
p125
(dp126
S'Service'
p127
S"<class 'gluon.tools.Service'>"
p128
sS'OBJECT'
p129
S"<class 'gluon.html.OBJECT'>"
p130
sS'SQLDB'
p131
S"<class 'pydal.base.DAL'>"
p132
sg117
S"<Storage {'_auth_next': None, 'flash': None, '_f...f0a3b', '62556652-f653-4abd-982e-e6435c2e8f7c']}>"
p133
sS'LINK'
p134
S"<class 'gluon.html.LINK'>"
p135
sS'BR'
p136
S"<class 'gluon.html.BR'>"
p137
sS'local_import'
p138
S'<function <lambda>>'
p139
sS'OPTGROUP'
p140
S"<class 'gluon.html.OPTGROUP'>"
p141
sS'__package__'
p142
S'None'
p143
sS'PRE'
p144
S"<class 'gluon.html.PRE'>"
p145
sS'IS_INT_IN_RANGE'
p146
S"<class 'gluon.validators.IS_INT_IN_RANGE'>"
p147
sS'IS_LOWER'
p148
S"<class 'gluon.validators.IS_LOWER'>"
p149
sS'IS_STRONG'
p150
S"<class 'gluon.validators.IS_STRONG'>"
p151
sS'cache'
p152
S'<gluon.cache.Cache object>'
p153
sS'IS_IN_DB'
p154
S"<class 'gluon.validators.IS_IN_DB'>"
p155
sS'TAG'
p156
S'<gluon.html.__TAG__ object>'
p157
sS'SQLField'
p158
S"<class 'pydal.objects.Field'>"
p159
sS'mail'
p160
S'<gluon.tools.Mail object>'
p161
sS'BODY'
p162
S"<class 'gluon.html.BODY'>"
p163
sS'IS_DATE_IN_RANGE'
p164
S"<class 'gluon.validators.IS_DATE_IN_RANGE'>"
p165
sS'IFRAME'
p166
S"<class 'gluon.html.IFRAME'>"
p167
sS'URL'
p168
S'<function URL>'
p169
sS'__file__'
p170
S"'/home/amauri/web2py/applications/eventos/views/default/home.html'"
p171
sS'db'
p172
S'<DAL uri="sqlite://storage.sqlite">'
p173
sS'auth'
p174
S'<gluon.tools.Auth object>'
p175
sS'P'
S"<class 'gluon.html.P'>"
p176
sS'TFOOT'
p177
S"<class 'gluon.html.TFOOT'>"
p178
sS'XHTML'
p179
S"<class 'gluon.html.XHTML'>"
p180
sS'ON'
p181
S'True'
p182
sS'OL'
p183
S"<class 'gluon.html.OL'>"
p184
sS'TEXTAREA'
p185
S"<class 'gluon.html.TEXTAREA'>"
p186
sS'MENU'
p187
S"<class 'gluon.html.MENU'>"
p188
sS'IS_IMAGE'
p189
S"<class 'gluon.validators.IS_IMAGE'>"
p190
sS'EM'
p191
S"<class 'gluon.html.EM'>"
p192
sS'CODE'
p193
S"<class 'gluon.html.CODE'>"
p194
sS'HTTP'
p195
S"<class 'gluon.http.HTTP'>"
p196
sS'HR'
p197
S"<class 'gluon.html.HR'>"
p198
sS'IS_DATETIME'
p199
S"<class 'gluon.validators.IS_DATETIME'>"
p200
sS'STYLE'
p201
S"<class 'gluon.html.STYLE'>"
p202
sS'LABEL'
p203
S"<class 'gluon.html.LABEL'>"
p204
sS'CLEANUP'
p205
S"<class 'gluon.validators.CLEANUP'>"
p206
sS'plugins'
p207
S'<gluon.tools.PluginManager object>'
p208
sS'SELECT'
p209
S"<class 'gluon.html.SELECT'>"
p210
sS'CENTER'
p211
S"<class 'gluon.html.CENTER'>"
p212
sS'Auth'
p213
S"<class 'gluon.tools.Auth'>"
p214
sS'DEVELOPMENT_MENU'
p215
g182
sS'__builtins__'
p216
S"{'ArithmeticError': <type 'exceptions.ArithmeticError'>, 'AssertionError': <type 'exceptions.AssertionError'>, 'AttributeError': <type 'exceptions.AttributeError'>, 'BaseException': <type 'exceptions.BaseException'>, 'BufferError': <type 'exceptions.BufferError'>, 'BytesWarning': <type 'exceptions.BytesWarning'>, 'DeprecationWarning': <type 'exceptions.DeprecationWarning'>, 'EOFError': <type 'exceptions.EOFError'>, 'Ellipsis': Ellipsis, 'EnvironmentError': <type 'exceptions.EnvironmentError'>, ...}"
p217
sS'HTML'
p218
S"<class 'gluon.html.HTML'>"
p219
sS'SQLFORM'
p220
S"<class 'gluon.sqlhtml.SQLFORM'>"
p221
sS'LOAD'
p222
S'<function LOAD>'
p223
sS'redirect'
p224
S'<function redirect>'
p225
sS'FIELDSET'
p226
S"<class 'gluon.html.FIELDSET'>"
p227
sS'IS_EQUAL_TO'
p228
S"<class 'gluon.validators.IS_EQUAL_TO'>"
p229
sS'embed64'
p230
S'<function embed64>'
p231
sS'IS_LIST_OF'
p232
S"<class 'gluon.validators.IS_LIST_OF'>"
p233
sS'INPUT'
p234
S"<class 'gluon.html.INPUT'>"
p235
sS'EMBED'
p236
S"<class 'gluon.html.EMBED'>"
p237
sS'_'
S'<function _>'
p238
sS'myconf'
p239
S"{'forms': {'formstyle': 'bootstrap3_inline', 'se...': {'names': 'localhost:*, 127.0.0.1:*, *:*, *'}}"
p240
sS'H2'
p241
S"<class 'gluon.html.H2'>"
p242
sS'H3'
p243
S"<class 'gluon.html.H3'>"
p244
sS'AppConfig'
p245
S'<function AppConfig>'
p246
sS'H1'
p247
S"<class 'gluon.html.H1'>"
p248
sS'H6'
p249
S"<class 'gluon.html.H6'>"
p250
sS'H4'
p251
S"<class 'gluon.html.H4'>"
p252
sS'H5'
p253
S"<class 'gluon.html.H5'>"
p254
sS'UL'
p255
S"<class 'gluon.html.UL'>"
p256
sS'IS_UPPER'
p257
S"<class 'gluon.validators.IS_UPPER'>"
p258
sS'xmlescape'
p259
S'<function xmlescape>'
p260
sS'IS_TIME'
p261
S"<class 'gluon.validators.IS_TIME'>"
p262
sS'OPTION'
p263
S"<class 'gluon.html.OPTION'>"
p264
sS'TITLE'
p265
S"<class 'gluon.html.TITLE'>"
p266
sS'CRYPT'
p267
S"<class 'gluon.validators.CRYPT'>"
p268
sS'IS_EMPTY_OR'
p269
S"<class 'gluon.validators.IS_EMPTY_OR'>"
p270
sS'MARKMIN'
p271
S"<class 'gluon.html.MARKMIN'>"
p272
sS'__name__'
p273
S"'__restricted__'"
p274
sS'STRONG'
p275
S"<class 'gluon.html.STRONG'>"
p276
sS'COL'
p277
S"<class 'gluon.html.COL'>"
p278
sS'service'
p279
S'<gluon.tools.Service object>'
p280
sS'SCRIPT'
p281
S"<class 'gluon.html.SCRIPT'>"
p282
sS'TABLE'
p283
S"<class 'gluon.html.TABLE'>"
p284
sS'IS_IPV4'
p285
S"<class 'gluon.validators.IS_IPV4'>"
p286
sS'IS_LENGTH'
p287
S"<class 'gluon.validators.IS_LENGTH'>"
p288
sS'IS_IPV6'
p289
S"<class 'gluon.validators.IS_IPV6'>"
p290
sS'XML'
p291
S"<class 'gluon.html.XML'>"
p292
sS'B'
S"<class 'gluon.html.B'>"
p293
sS'IMG'
p294
S"<class 'gluon.html.IMG'>"
p295
sS'SQLTABLE'
p296
S"<class 'gluon.sqlhtml.SQLTABLE'>"
p297
sS'IS_MATCH'
p298
S"<class 'gluon.validators.IS_MATCH'>"
p299
sS'IS_ALPHANUMERIC'
p300
S"<class 'gluon.validators.IS_ALPHANUMERIC'>"
p301
sS'SPAN'
p302
S"<class 'gluon.html.SPAN'>"
p303
sS'IS_JSON'
p304
S"<class 'gluon.validators.IS_JSON'>"
p305
sS'IS_IPADDRESS'
p306
S"<class 'gluon.validators.IS_IPADDRESS'>"
p307
sS'IS_SLUG'
p308
S"<class 'gluon.validators.IS_SLUG'>"
p309
sS'BEAUTIFY'
p310
S"<class 'gluon.html.BEAUTIFY'>"
p311
sS'META'
p312
S"<class 'gluon.html.META'>"
p313
sS'BUTTON'
p314
S"<class 'gluon.html.BUTTON'>"
p315
sS'IS_DATE'
p316
S"<class 'gluon.validators.IS_DATE'>"
p317
sS'IS_EMAIL'
p318
S"<class 'gluon.validators.IS_EMAIL'>"
p319
sS'IS_NOT_EMPTY'
p320
S"<class 'gluon.validators.IS_NOT_EMPTY'>"
p321
sS'IS_FLOAT_IN_RANGE'
p322
S"<class 'gluon.validators.IS_FLOAT_IN_RANGE'>"
p323
sS'TBODY'
p324
S"<class 'gluon.html.TBODY'>"
p325
sS'CAT'
p326
S"<class 'gluon.html.CAT'>"
p327
sS'Field'
p328
S"<class 'pydal.objects.Field'>"
p329
sS'IS_LIST_OF_EMAILS'
p330
S"<class 'gluon.validators.IS_LIST_OF_EMAILS'>"
p331
sS'DIV'
p332
S"<class 'gluon.html.DIV'>"
p333
sS'LEGEND'
p334
S"<class 'gluon.html.LEGEND'>"
p335
sS'COLGROUP'
p336
S"<class 'gluon.html.COLGROUP'>"
p337
sS'DAL'
p338
S"<class 'pydal.base.DAL'>"
p339
sS'ASSIGNJS'
p340
S'<function ASSIGNJS>'
p341
sS'TR'
p342
S"<class 'gluon.html.TR'>"
p343
sS'LI'
p344
S"<class 'gluon.html.LI'>"
p345
sS'TH'
p346
S"<class 'gluon.html.TH'>"
p347
sS'TD'
p348
S"<class 'gluon.html.TD'>"
p349
sS'PluginManager'
p350
S"<class 'gluon.tools.PluginManager'>"
p351
sS'IS_URL'
p352
S"<class 'gluon.validators.IS_URL'>"
p353
sS'A'
S"<class 'gluon.html.A'>"
p354
sS'HEAD'
p355
S"<class 'gluon.html.HEAD'>"
p356
sS'IS_DATETIME_IN_RANGE'
p357
S"<class 'gluon.validators.IS_DATETIME_IN_RANGE'>"
p358
sS'FORM'
p359
S"<class 'gluon.html.FORM'>"
p360
sS'I'
S"<class 'gluon.html.I'>"
p361
sS'IS_NOT_IN_DB'
p362
S"<class 'gluon.validators.IS_NOT_IN_DB'>"
p363
sg123
S"<Storage {'body': <cStringIO.StringO object at 0...at 0x7fe4e0090140>, 'view': 'default/home.html'}>"
p364
sS'THEAD'
p365
S"<class 'gluon.html.THEAD'>"
p366
sS'ANY_OF'
p367
S"<class 'gluon.validators.ANY_OF'>"
p368
sS'IS_NULL_OR'
p369
S"<class 'gluon.validators.IS_EMPTY_OR'>"
p370
sg56
S"<Storage {'_vars': None, 'function': 'home', 'co...r': '/home/amauri/web2py/applications/eventos/'}>"
p371
sS'IS_EXPR'
p372
S"<class 'gluon.validators.IS_EXPR'>"
p373
sS'T'
S'<gluon.languages.translator object>'
p374
sS'IS_IN_SET'
p375
S"<class 'gluon.validators.IS_IN_SET'>"
p376
sS'IS_UPLOAD_FILENAME'
p377
S"<class 'gluon.validators.IS_UPLOAD_FILENAME'>"
p378
sS'TT'
p379
S"<class 'gluon.html.TT'>"
p380
sS'IS_DECIMAL_IN_RANGE'
p381
S"<class 'gluon.validators.IS_DECIMAL_IN_RANGE'>"
p382
sssS'traceback'
p383
S'Traceback (most recent call last):\n  File "/home/amauri/web2py/gluon/restricted.py", line 227, in restricted\n    exec ccode in environment\n  File "/home/amauri/web2py/applications/eventos/views/default/home.html", line 29, in <module>\n    <div class="navbar-header centro">\nTypeError: unsupported operand type(s) for |: \'str\' and \'tuple\'\n'
p384
s.