(dp1
S'output'
p2
S'missing "pass" in view'
p3
sS'layer'
p4
S'ParserContainer'
p5
sS'code'
p6
S'response.write(\'<!DOCTYPE html>\\n<html lang="pt-br">\\n  <head>\\n    <meta charset="utf-8">\\n    <meta http-equiv="X-UA-Compatible" content="IE=edge">\\n    <meta name="viewport" content="width=device-width, initial-scale=1">\\n    <!-- The above 3 meta tags *must* come first in the head; any other head content must come *after* these tags -->\\n    <title>Encontro dos Primos do S\\xc3\\xadtio</title>\\n    <!-- Google Fonts -->\\n    <link href="https://fonts.googleapis.com/css?family=Lato:300,400,700" rel="stylesheet">\\n    <!-- Bootstrap -->\\n    <link href="\', escape=False)\nresponse.write(URL(\'static\', \'css/bootstrap.min.css\'))\nresponse.write(\'" rel="stylesheet">\\n    <link href="\', escape=False)\nresponse.write(URL(\'static\', \'css/font-awesome.min.css\'))\nresponse.write(\'" rel="stylesheet">\\n    <link href="\', escape=False)\nresponse.write(URL(\'static\', \'css/estilo.css\'))\nresponse.write(\'" rel="stylesheet">\\n\\n    <!-- HTML5 shim and Respond.js for IE8 support of HTML5 elements and media queries -->\\n    <!-- WARNING: Respond.js doesn\\\'t work if you view the page via file:// -->\\n    <!--[if lt IE 9]>\\n      <script src="https://oss.maxcdn.com/html5shiv/3.7.3/html5shiv.min.js"></script>\\n      <script src="https://oss.maxcdn.com/respond/1.4.2/respond.min.js"></script>\\n    <![endif]-->\\n    \', escape=False)\nresponse.write(\'<script type="text/javascript"><!--\\n    // These variables are used by the web2py_ajax_init function in web2py_ajax.js (which is loaded below).\\n    var w2p_ajax_confirm_message = "\', escape=False)\nresponse.write(T(\'Are you sure you want to delete this object?\'))\nresponse.write(\'";\\n    var w2p_ajax_disable_with_message = "\', escape=False)\nresponse.write(T(\'Working...\'))\nresponse.write(\'";\\n    var w2p_ajax_date_format = "\', escape=False)\nresponse.write(T(\'%Y-%m-%d\'))\nresponse.write(\'";\\n    var w2p_ajax_datetime_format = "\', escape=False)\nresponse.write(T(\'%Y-%m-%d %H:%M:%S\'))\nresponse.write(\'";\\n    var ajax_error_500 = \\\'\', escape=False)\nresponse.write(T.M(\'An error occured, please [[reload %s]] the page\') % URL(args=request.args, vars=request.get_vars))\nresponse.write("\'\\n    //--></script>\\n", escape=False)\nresponse.files.insert(0,URL(\'static\',\'js/jquery.js\'))\nresponse.files.insert(1,URL(\'static\',\'css/calendar.css\'))\nresponse.files.insert(2,URL(\'static\',\'js/calendar.js\'))\nresponse.files.insert(3,URL(\'static\',\'js/web2py.js\'))\nresponse.include_meta()\nresponse.include_files()\nresponse.write(\'\\n\', escape=False)\nresponse.write(\'\\n  </head>\\n  <body data-spy="scroll" data-target=".menu-navegacao" data-offset="80">\\n\\n      <!-- Menu da Aplica\\xc3\\xa7\\xc3\\xa3o -->\\n      <nav class="navbar navbar-inverse navbar-fixed-top" role="navigation">\\n        <div class="container-fluid">\\n            <div class="navbar-header centro">\\n                <button type="button" class="navbar-toggle collapsed" data-toggle="collapse" data-target="#menu-navegacao" aria-expanded="false" aria-controls="navbar">\\n                    <span class="icon-bar"></span>\\n                    <span class="icon-bar"></span>\\n                    <span class="icon-bar"></span>\\n                </button>\\n                <div class="navbar-header centro">\\n                    <a class="navbar-brand" href="#">Primos do S\\xc3\\xadtio</a>\\n                    <span class="badge-container">\\n                    <a href="#" class="dropdown-toggle" data-toggle="dropdown" role="button" aria-haspopup="false" aria-expanded="false">\\n                        \', escape=False)\nif URL(\'download\', args=\'%(fotoPerfil)s\' %(auth.user)) == \'\':\n    response.write(\'<!--\', escape=False)\n    if db.auth_user.fotoPerfil == \'\':\n        response.write(\'-->\\n                        <img src="\', escape=False)\n        response.write(URL(\'static\',\'img/userAnonymous.png\'))\n        response.write(\'" alt="Perfil do Usu\\xc3\\xa1rio" class="avatar img-circle"></a>\\n                        \', escape=False)\n    else:\n        response.write(\'\\n                        <img src="\', escape=False)\n        response.write(URL(\'download\', args=\'%(fotoPerfil)s\' %(auth.user)))\n        response.write(\'" alt="Perfil do Usu\\xc3\\xa1rio" class="avatar img-circle"></a>\\n                        \', escape=False)\n        pass\n    response.write(\'\\n                    <a href="\', escape=False)\n    response.write(URL(\'home\'))\n    response.write(\'"><span class="badge">15</span></a>\\n                    <ul class="dropdown-menu">\\n                        <li><a href="\', escape=False)\n    response.write(URL(\'user/register\'))\n    response.write(\'">Login</a></li>\\n                        <li><a href="\', escape=False)\n    response.write(URL(\'user/profile\'))\n    response.write(\'">Perfil</a></li>\\n                        <li><a href="\', escape=False)\n    response.write(URL(\'painel\'))\n    response.write(\'">Gerenciamento</a></li>\\n                        <li><a href="\', escape=False)\n    response.write(URL(\'user/logout\'))\n    response.write(\'">Sair</a></li>\\n                    </ul>\\n                    </span>\\n                </div>\\n            </div>\\n\\n            <div class="collapse navbar-collapse centro menu-navegacao" id="menu-navegacao">\\n                <h5 class="navbar-text">Ol\\xc3\\xa1 \', escape=False)\n    response.write(\'%(first_name)s\' %(auth.user))\n    response.write(\'</h5>\\n                <ul class="nav navbar-nav navbar-right">\\n                    <li class="active"><a href="#top">In\\xc3\\xadcio</a></li>\\n                    <li class="dropdown">\\n                        <a href="#" class="dropdown-toggle" data-toggle="dropdown" role="button" aria-haspopup="true" aria-expanded="false">Informa\\xc3\\xa7\\xc3\\xb5es<span class="caret"></span></a>\\n                        <ul class="dropdown-menu">\\n                            <li><a href="#informacoes">Sobre o evento</a></li>\\n                            <li><a href="#oquelevar">O Que Levar</a></li>\\n                            <li><a href="#dataelocal">Data e Local</a></li>\\n                        </ul>\\n                    </li>\\n                    <li class="dropdown">\\n                        <a href="#" class="dropdown-toggle" data-toggle="dropdown" role="button" aria-haspopup="true" aria-expanded="false">Participantes<span class="caret"></span></a>\\n                        <ul class="dropdown-menu">\\n                            <li><a href="#confirmados">Confirmados</a></li>\\n                            <li><a href="#naoconfirmados">N\\xc3\\xa3o Confirmados</a></li>\\n                        </ul>\\n                    </li>\\n                    <li><a href="#comentarios">Coment\\xc3\\xa1rios</a></li>\\n                </ul>\\n            </div>\\n        </div>\\n      </nav>\\n      <!-- // Menu da Aplica\\xc3\\xa7\\xc3\\xa3o -->\\n\\n\\n      <!-- Slider da Aplica\\xc3\\xa7\\xc3\\xa3o -->\\n      <!--<section id="inicio"> &lt;!&ndash; class="fundo-slider"> &ndash;&gt;-->\\n          <div class="divslider fundo-slider">\\n              <div class="container">\\n                  <div class="row">\\n                      <div class="col-xs-offset-1 col-xs-10 col-xs-offset-1 col-sm-offset-2 col-sm-8 col-sm-offset-2 col-md-offset-2 col-md-8 col-md-offset-2 col-lg-offset-3 col-lg-6 col-lg-offset-3">\\n                          <div id="sliderprincipal" class="carousel slide" data-ride="carousel" data-interval="3000">\\n\\n                              <ol class="carousel-indicators">\\n                                  <li data-target="#sliderprincipal" data-slide-to="0" class="active"></li>\\n                                  <li data-target="#sliderprincipal" data-slide-to="1"></li>\\n                                  <li data-target="#sliderprincipal" data-slide-to="2"></li>\\n                                  <li data-target="#sliderprincipal" data-slide-to="3"></li>\\n                              </ol>\\n\\n                            <div class="carousel-inner" role="listbox">\\n                                <div class="item active">\\n                                    <img src="\', escape=False)\n    response.write(URL(\'static\',\'imgPrimos/01.jpg\'))\n    response.write(\'" class="img-responsive" alt="Imagem Slider 1">\\n                                </div>\\n                                <div class="item">\\n                                    <img src="\', escape=False)\n    response.write(URL(\'static\',\'imgPrimos/02.jpg\'))\n    response.write(\'" class="img-responsive" alt="Imagem Slider 2">\\n                                </div>\\n                                <div class="item">\\n                                    <img src="\', escape=False)\n    response.write(URL(\'static\',\'imgPrimos/03.jpg\'))\n    response.write(\'" class="img-responsive" alt="Imagem Slider 2">\\n                                </div>\\n                                <div class="item">\\n                                    <img src="\', escape=False)\n    response.write(URL(\'static\',\'imgPrimos/04.jpg\'))\n    response.write(\'" class="img-responsive" alt="Imagem Slider 2">\\n                                </div>\\n                            </div>\\n\\n                              <a class="left carousel-control" href="#sliderprincipal" role="button" data-slide="prev">\\n                                  <span class="glyphicon glyphicon-chevron-left"></span>\\n                                  <span class="sr-only">Anterior</span>\\n                              </a>\\n                              <a class="right carousel-control" href="#sliderprincipal" role="button" data-slide="next">\\n                                  <span class="glyphicon glyphicon-chevron-right"></span>\\n                                  <span class="sr-only">Pr\\xc3\\xb3ximo</span>\\n                              </a>\\n\\n                          </div>\\n                        </div>\\n                    </div>\\n              </div>\\n          </div>\\n      <!--</section>-->\\n      <!-- // Slider da Aplica\\xc3\\xa7\\xc3\\xa3o -->\\n\\n      <!-- Informa\\xc3\\xa7\\xc3\\xb5es -->\\n      <section id="informacoes" class="fundo-informacoes">\\n          <div class="container">\\n                <div class="row">\\n                    <div class="col-xs-12">\\n                        <div class="page-header">\\n                            <h1>Informa\\xc3\\xa7\\xc3\\xb5es<br/><small>Sobre o evento</small></h1>\\n                        </div>\\n                    </div>\\n                </div>\\n          </div>\\n      </section>\\n      <!-- // Informa\\xc3\\xa7\\xc3\\xb5es -->\\n\\n      <!-- Confirmados -->\\n      <section id="confirmados" class="fundo-confirmados">\\n          <div class="container">\\n                <div class="row">\\n                    <div class="col-xs-12">\\n                        <div class="page-header">\\n                            <h1>Confirmados<br/><small>Sem Frescura</small></h1>\\n                        </div>\\n                    </div>\\n                </div>\\n\\n                <div class="row foto-centro">\\n                  <div class="col-xs-6 col-md-3 col-lg-4 text-center">\\n                        <div class="foto-centro"><img src="\', escape=False)\n    response.write(URL(\'static\', \'img/userAnonymous.png\'))\n    response.write(\'" class="img-responsive img-circle" /></div>\\n                        <!--<h4 class="sr-only">Amauri</h4>-->\\n                        <h4>Amauri</h4>\\n                  </div>\\n\\n                    <div class="col-xs-6 col-md-3 col-lg-4 text-center">\\n                        <div class="foto-centro"><img src="\', escape=False)\n    response.write(URL(\'static\', \'img/userAnonymous.png\'))\n    response.write(\'" class="img-responsive img-circle" /></div>\\n                        <h4>Ideli</h4>\\n                    </div>\\n\\n                    <div class="col-xs-6 col-md-3 col-lg-4 text-center">\\n                        <div class="foto-centro"><img src="\', escape=False)\n    response.write(URL(\'static\', \'img/userAnonymous.png\'))\n    response.write(\'" class="img-responsive img-circle" /></div>\\n                        <h4>Katia</h4>\\n                    </div>\\n                </div>\\n\\n                <div class="row foto-centro">\\n                  <div class="col-xs-6 col-md-3 col-lg-4 text-center">\\n                        <div class="foto-centro"><img src="\', escape=False)\n    response.write(URL(\'static\', \'img/userAnonymous.png\'))\n    response.write(\'" class="img-responsive img-circle" /></div>\\n                        <h4>Ana Paula</h4>\\n                  </div>\\n\\n                    <div class="col-xs-6 col-md-3 col-lg-4 text-center">\\n                        <div class="foto-centro"><img src="\', escape=False)\n    response.write(URL(\'static\', \'img/userAnonymous.png\'))\n    response.write(\'" class="img-responsive img-circle" /></div>\\n                        <h4>Marcelo</h4>\\n                    </div>\\n\\n                    <div class="col-xs-6 col-md-3 col-lg-4 text-center">\\n                        <div class="foto-centro"><img src="\', escape=False)\n    response.write(URL(\'static\', \'img/userAnonymous.png\'))\n    response.write(\'" class="img-responsive img-circle" /></div>\\n                        <h4>Fabio</h4>\\n                    </div>\\n                </div>\\n\\n                <div class="row foto-centro">\\n                  <div class="col-xs-6 col-md-3 col-lg-4 text-center">\\n                        <div class="foto-centro"><img src="\', escape=False)\n    response.write(URL(\'static\', \'img/userAnonymous.png\'))\n    response.write(\'" class="img-responsive img-circle" /></div>\\n                        <h4>Ana Luzia</h4>\\n                  </div>\\n\\n                    <div class="col-xs-6 col-md-3 col-lg-4 text-center">\\n                        <div class="foto-centro"><img src="\', escape=False)\n    response.write(URL(\'static\', \'img/userAnonymous.png\'))\n    response.write(\'" class="img-responsive img-circle" /></div>\\n                        <h4>Rosana</h4>\\n                    </div>\\n\\n                    <div class="col-xs-6 col-md-3 col-lg-4 text-center">\\n                        <div class="foto-centro"><img src="\', escape=False)\n    response.write(URL(\'static\', \'img/userAnonymous.png\'))\n    response.write(\'" class="img-responsive img-circle" /></div>\\n                        <h4>Marcio</h4>\\n                    </div>\\n                </div>\\n          </div>\\n      </section>\\n      <!-- /. Confirmados -->\\n\\n\\n      <!-- N\\xc3\\xa3o Confirmados -->\\n      <section id="naoconfirmados" class="fundo-naoconfirmados">\\n          <div class="container">\\n                <div class="row">\\n                    <div class="col-xs-12">\\n                        <div class="page-header">\\n                            <h1>N\\xc3\\xa3o Confirmados<br/><small>No Pared\\xc3\\xa3o</small></h1>\\n                        </div>\\n                    </div>\\n                </div>\\n\\n                <div class="row contato">\\n                    <div class="col-xs-12">\\n                        <h4 class="bg-primary aviso-presenca text-center">Clique na sua foto para confirmar que ir\\xc3\\xa1 ao evento</h4>\\n                    </div>\\n                </div>\\n\\n                <div class="row foto-centro">\\n                  <div class="col-xs-6 col-md-3 col-lg-4 text-center">\\n                        <a href="#" class="foto-centro"><img src="\', escape=False)\n    response.write(URL(\'static\', \'imgPrimos/Amauri.jpg\'))\n    response.write(\'" class="img-responsive img-circle" /></a>\\n                        <h4>Amauri</h4>\\n                  </div>\\n                  \\n                    <div class="col-xs-6 col-md-3 col-lg-4 text-center">\\n                        <a  href="#" class="foto-centro"><img src="\', escape=False)\n    response.write(URL(\'static\', \'imgPrimos/Ideli.jpg\'))\n    response.write(\'" class="img-responsive img-circle" /></a>\\n                        <h4>Ideli</h4>\\n                    </div>\\n \\n                    <div class="col-xs-6 col-md-3 col-lg-4 text-center">\\n                        <a href="#" class="foto-centro"><img src="\', escape=False)\n    response.write(URL(\'static\', \'imgPrimos/Katia.jpg\'))\n    response.write(\'" class="img-responsive img-circle" /></a>\\n                        <h4>Katia</h4>\\n                    </div>\\n                </div>\\n\\n                <div class="row foto-centro">\\n                  <div class="col-xs-6 col-md-3 col-lg-4 text-center">\\n                        <a href="#" class="foto-centro"><img src="\', escape=False)\n    response.write(URL(\'static\', \'imgPrimos/AnaPaula.jpg\'))\n    response.write(\'" class="img-responsive img-circle" /></a>\\n                        <h4>Ana Paula</h4>\\n                  </div>\\n\\n                    <div class="col-xs-6 col-md-3 col-lg-4 text-center">\\n                        <a href="#" class="foto-centro"><img src="\', escape=False)\n    response.write(URL(\'static\', \'imgPrimos/Marcelo.jpg\'))\n    response.write(\'" class="img-responsive img-circle" /></a>\\n                        <h4>Marcelo</h4>\\n                    </div>\\n\\n                    <div class="col-xs-6 col-md-3 col-lg-4 text-center">\\n                        <a href="#" class="foto-centro"><img src="\', escape=False)\n    response.write(URL(\'static\', \'imgPrimos/Fabio.jpg\'))\n    response.write(\'" class="img-responsive img-circle" /></a>\\n                        <h4>Fabio</h4>\\n                    </div>\\n                </div>\\n\\n                <div class="row foto-centro">\\n                  <div class="col-xs-6 col-md-3 col-lg-4 text-center">\\n                        <a href="#" class="foto-centro"><img src="\', escape=False)\n    response.write(URL(\'static\', \'imgPrimos/AnaLuzia.jpg\'))\n    response.write(\'" class="img-responsive img-circle" /></a>\\n                        <h4>Ana Luzia</h4>\\n                  </div>\\n\\n                    <div class="col-xs-6 col-md-3 col-lg-4 text-center">\\n                        <a href="#" class="foto-centro"><img src="\', escape=False)\n    response.write(URL(\'static\', \'imgPrimos/Rosana.jpg\'))\n    response.write(\'" class="img-responsive img-circle" /></a>\\n                        <h4>Rosana</h4>\\n                    </div>\\n\\n                    <div class="col-xs-6 col-md-3 col-lg-4 text-center">\\n                        <a href="#" class="foto-centro"><img src="\', escape=False)\n    response.write(URL(\'static\', \'imgPrimos/Marcio.jpg\'))\n    response.write(\'" class="img-responsive img-circle" /></a>\\n                        <h4>Marcio</h4>\\n                    </div>\\n                </div>\\n          </div>\\n      </section>\\n      \\n      <!-- // N\\xc3\\xa3o Confirmados -->\\n      \\n      <!-- O Que Levar -->\\n      <section id="oquelevar" class="fundo-levar">\\n          <div class="container">\\n              <div class="row">\\n                <div class="col-xs-12">\\n                    <div class="page-header">\\n                        <h1>O Que Levar <small class="glyphicon glyphicon-cutlery tam_icon"></small></h1>\\n                    </div>\\n                </div>\\n              </div>\\n              \\n              <div class="container">\\n                    <div class="row">\\n                        <div class="col-xs-12">\\n                            <div class="page-header">\\n                                <h1>Churrasco</h1>\\n                            </div>\\n                                <div class="btn-group" data-toggle="buttons">\\n                                    <label class="btn btn-primary btnjs active">\\n                                        <input type="checkbox" checked>Cerveja\\n                                    </label>\\n                                    <label class="btn btn-primary btnjs">\\n                                        <input type="checkbox">Picanha\\n                                    </label>\\n                                    <label class="btn btn-primary btnjs">\\n                                        <input type="checkbox">Lingui\\xc3\\xa7a Apimentada\\n                                    </label>\\n                                </div>\\n                        </div>\\n                   </div>\\n              </div>\\n\\n          </div>\\n      </section>\\n\\n      <!--<div class="btn-group" data-toggle="buttons">\\n  <label class="btn btn-primary active">\\n    <input type="checkbox" autocomplete="off" checked> Checkbox 1 (pre-checked)\\n  </label>\\n  <label class="btn btn-primary">\\n    <input type="checkbox" autocomplete="off"> Checkbox 2\\n  </label>\\n  <label class="btn btn-primary">\\n    <input type="checkbox" autocomplete="off"> Checkbox 3\\n  </label>\\n</div>-->\\n      \\n      <!-- // O Que Levar -->\\n      \\n      <!-- Data e Local -->\\n      <section id="dataelocal">\\n          <div class="container">\\n              <div class="row">\\n                <div class="col-xs-12">\\n                    <div class="page-header">\\n                        <h1>Data e Local <small class="glyphicon glyphicon-calendar tam_icon"></small></h1>\\n                    </div>\\n                    \\n                </div>\\n              </div>\\n              \\n              <div class="row">\\n                <div class="col-xs-12">\\n                    <div class="col-xs-12 col-sm-4 col-md-4 col-lg-4">\\n                        <h3>Data Indeterminada</h3>\\n                        <h3>Local Indeterminado</h3>\\n                    </div>\\n                    <div class="col-xs-12 col-sm-8 col-md-8 col-lg-8">\\n                    <iframe src="https://www.google.com/maps/embed?pb=!1m18!1m12!1m3!1d3657.448428335559!2d-46.\\n                    66045758548029!3d-23.552332884687388!2m3!1f0!2f0!3f0!3m2!1i1024!2i768!4f13.1!3m3!1m2!1s0x94\\n                    ce583336f5f7fd%3A0xfd167d460c5b21b2!2zUi4gZGEgQ29uc29sYcOnw6NvIC0gQ29uc29sYcOnw6NvLCBTw6NvI\\n                    FBhdWxvIC0gU1A!5e0!3m2!1spt-BR!2sbr!4v1471707714547" width="80%" height="400" frameborder="0"\\n                            style="border:0" allowfullscreen></iframe>\\n                    </div>\\n              </div>\\n            </div>\\n          </div>\\n      </section>      \\n      \\n      <!-- // Data e Local -->\\n      \\n      <!-- D\\xc3\\xbavidas -->\\n      <section id="comentarios">\\n          <div class="container">\\n            <div class="row">\\n                <div class="col-xs-12">\\n                    <div class="page-header">\\n                        <h1>D\\xc3\\xbavidas, Coment\\xc3\\xa1rios e Sugest\\xc3\\xb5es <small class="glyphicon glyphicon-question-sign tam_icon"></small></h1>\\n                    </div>\\n                </div>\\n            </div>\\n              \\n            <div class="row contato">\\n                <div class="col-xs-12">\\n                    <h4 class="bg-success aviso-presenca">Tire sua d\\xc3\\xbavida, fa\\xc3\\xa7a um coment\\xc3\\xa1rio ou sugest\\xc3\\xa3o</h4>\\n                </div>\\n            </div>\\n            \\n            <div class="row">\\n                <div class="col-xs-12">\\n                    <form name="frmContato" id="formContato">\\n                        <div class="row contato">\\n                            <div class="col-md-6">\\n                                <div class="form-group">\\n                                    <input type="text" class="form-control input-lg" placeholder="Digite seu nome *" required />\\n                                </div>\\n                                <div class="form-group">\\n                                    <input type="email" class="form-control input-lg" placeholder="Digite seu e-mail *" required />\\n                                </div>\\n                                <div class="form-group">\\n                                    <input type="tel" class="form-control input-lg" placeholder="Digite seu telefone" />\\n                                </div>\\n                                <div class="form-group">\\n                                <button type="submit" class="btn btn-info btn-lg btn-block disabled">Enviar Formul\\xc3\\xa1rio</button>\\n                                </div>\\n                            </div>\\n                            <div class="col-md-6">\\n                                <textarea class="form-control" placeholder="Sua mensagem"></textarea>\\n                            </div>\\n\\n                        </div>\\n                        \\n                        <!--<div class="row">\\n                            <div class="col-sm-6">\\n                                <div class="alert alert-success envio sr-only">Envio Realizado com successo!</div>\\n                            </div>\\n                        </div>\\n                        <div class="row">\\n                            <div class="col-sm-6">\\n                                <div class="alert alert-danger envio sr-only">Erro ao enviar. Verifique os dados digitados.</div>\\n                            </div>\\n                        </div>-->\\n                    </form>\\n                </div>\\n            </div>\\n              \\n          </div>\\n      </section>      \\n      \\n      <!-- // D\\xc3\\xbavidas -->\\n      \\n      <footer>\\n        <div class="container">\\n            <div class="row">\\n                <div class="col-sm-10">\\n                    <p>Essa plataforma de eventos est\\xc3\\xa1 em fase de testes.</p>\\n                    <p>Em breve teremos novas funcionalidades.</p>\\n                    <p>Voc\\xc3\\xaa tamb\\xc3\\xa9m pode deixar um coment\\xc3\\xa1rio ou sugest\\xc3\\xa3o para melhorarmos essa plataforma.</p>\\n                </div>\\n                <div class="col-sm-2 text-right">\\n                    <small>Desenvolvido por</small><br />\\n                    <strong>Amauri Rossetti Giovani</strong>\\n                </div>\\n            </div>\\n        </div>\\n      </footer>\\n      \\n      \\n    <!-- jQuery (necessary for Bootstrap\\\'s JavaScript plugins) -->\\n\\n    <script src="https://ajax.googleapis.com/ajax/libs/jquery/1.12.4/jquery.min.js"></script>\\n    <!-- Include all compiled plugins (below), or include individual files as needed -->\\n    <script src="\', escape=False)\n    response.write(URL(\'static\',\'js/bootstrap.min.js\'))\n    response.write(\'"></script>\\n    <script src="\', escape=False)\n    response.write(URL(\'static\',\'js/main.js\'))\n    response.write(\'"></script>\\n  </body>\\n</html>\', escape=False)'
p7
sS'snapshot'
p8
(dp9
S'exception'
p10
(dp11
S'__module__'
p12
S"'gluon.rocket'"
p13
sS'__getslice__'
p14
S"<method-wrapper '__getslice__' of SocketTimeout object>"
p15
sS'__str__'
p16
S"<method-wrapper '__str__' of SocketTimeout object>"
p17
sS'__reduce__'
p18
S'<built-in method __reduce__ of SocketTimeout object>'
p19
sS'__dict__'
p20
S'{}'
p21
sS'__sizeof__'
p22
S'<built-in method __sizeof__ of SocketTimeout object>'
p23
sS'__weakref__'
p24
S'None'
p25
sS'__init__'
p26
S"<method-wrapper '__init__' of SocketTimeout object>"
p27
sS'__setattr__'
p28
S"<method-wrapper '__setattr__' of SocketTimeout object>"
p29
sS'__reduce_ex__'
p30
S'<built-in method __reduce_ex__ of SocketTimeout object>'
p31
sS'__new__'
p32
S'<built-in method __new__ of type object>'
p33
sS'__format__'
p34
S'<built-in method __format__ of SocketTimeout object>'
p35
sS'__class__'
p36
S"<class 'gluon.rocket.SocketTimeout'>"
p37
sS'__doc__'
p38
S"'Exception for when a socket times out between requests.'"
p39
sS'__getitem__'
p40
S"<method-wrapper '__getitem__' of SocketTimeout object>"
p41
sS'__setstate__'
p42
S'<built-in method __setstate__ of SocketTimeout object>'
p43
sS'__getattribute__'
p44
S"<method-wrapper '__getattribute__' of SocketTimeout object>"
p45
sS'args'
p46
S"('Socket timed out before request.',)"
p47
sS'__subclasshook__'
p48
S'<built-in method __subclasshook__ of type object>'
p49
sS'__unicode__'
p50
S'<built-in method __unicode__ of SocketTimeout object>'
p51
sS'__delattr__'
p52
S"<method-wrapper '__delattr__' of SocketTimeout object>"
p53
sS'__repr__'
p54
S"<method-wrapper '__repr__' of SocketTimeout object>"
p55
sS'__hash__'
p56
S"<method-wrapper '__hash__' of SocketTimeout object>"
p57
ssS'evalue'
p58
S'Socket timed out before request.'
p59
sS'frames'
p60
(lp61
(dp62
S'file'
p63
S'/home/amauri/web2py/gluon/rocket.py'
p64
sS'dump'
p65
(dp66
S'self'
p67
S'<WSGIWorker(Thread-5, started daemon 140621028521728)>'
p68
sS'conn'
p69
S'<gluon.rocket.Connection object>'
p70
sS'self.run_app'
p71
S'<bound method WSGIWorker.run_app of <WSGIWorker(Thread-5, started daemon 140621028521728)>>'
p72
ssS'lnum'
p73
I1337
sS'lines'
p74
(dp75
I1332
S'            # Enter connection serve loop'
p76
sI1333
S'            while True:'
p77
sI1334
S'                if __debug__:'
p78
sI1335
S"                    self.err_log.debug('Serving a request')"
p79
sI1336
S'                try:'
p80
sI1337
S'                    self.run_app(conn)'
p81
sI1338
S'                except:'
p82
sI1339
S'                    exc = sys.exc_info()'
p83
sI1340
S'                    handled = self._handleError(*exc)'
p84
sI1341
S'                    if handled:'
p85
ssS'call'
p86
S'(self=<WSGIWorker(Thread-5, started daemon 140621028521728)>)'
p87
sS'func'
p88
S'run'
p89
sa(dp90
g63
S'/home/amauri/web2py/gluon/rocket.py'
p91
sg65
(dp92
S'self'
p93
S'<WSGIWorker(Thread-5, started daemon 140621028521728)>'
p94
sS'self.environ'
p95
S"{'HTTP_ACCEPT': 'text/html,application/xhtml+xml,application/xml;q=0.9,image/webp,*/*;q=0.8', 'HTTP_ACCEPT_ENCODING': 'gzip, deflate, sdch', 'HTTP_ACCEPT_LANGUAGE': 'pt-BR,pt;q=0.8,en-US;q=0.6,en;q=0.4', 'HTTP_CACHE_CONTROL': 'max-age=0', 'HTTP_CONNECTION': 'keep-alive', 'HTTP_COOKIE': 'session_id_showroom=127.0.0.1-8643c9f0-f6b3-4b4c...os=127.0.0.1-265af069-829d-43f1-b00c-e97b8c243c84', 'HTTP_HOST': '127.0.0.1:8000', 'HTTP_REFERER': 'http://127.0.0.1:8000/eventos/default/index', 'HTTP_UPGRADE_INSECURE_REQUESTS': '1', 'HTTP_USER_AGENT': 'Mozilla/5.0 (X11; Linux x86_64) AppleWebKit/537....L, like Gecko) Chrome/51.0.2704.106 Safari/537.36', ...}"
p96
sS'sock_file'
p97
S'<socket._fileobject object>'
p98
sS'environ'
p99
S'undefined'
p100
sS'self.build_environ'
p101
S'<bound method WSGIWorker.build_environ of <WSGIWorker(Thread-5, started daemon 140621028521728)>>'
p102
sS'conn'
p103
S'<gluon.rocket.Connection object>'
p104
ssg73
I1830
sg74
(dp105
I1825
S'        else:'
p106
sI1826
S'            sock_file = conn.makefile(BUF_SIZE)'
p107
sI1827
S''
sI1828
S'        try:'
p108
sI1829
S'            # Read the headers and build our WSGI environment'
p109
sI1830
S'            self.environ = environ = self.build_environ(sock_file, conn)'
p110
sI1831
S''
sI1832
S'            # Handle 100 Continue'
p111
sI1833
S"            if environ.get('HTTP_EXPECT', '') == '100-continue':"
p112
sI1834
S"                res = environ['SERVER_PROTOCOL'] + ' 100 Continue\\r\\n\\r\\n'"
p113
ssg86
S'(self=<WSGIWorker(Thread-5, started daemon 140621028521728)>, conn=<gluon.rocket.Connection object>)'
p114
sg88
S'run_app'
p115
sa(dp116
g63
S'/home/amauri/web2py/gluon/rocket.py'
p117
sg65
(dp118
S'sock_file'
p119
S'<socket._fileobject object>'
p120
sS'self.read_request_line'
p121
S'<bound method WSGIWorker.read_request_line of <W...orker(Thread-5, started daemon 140621028521728)>>'
p122
sS'self'
p123
S'<WSGIWorker(Thread-5, started daemon 140621028521728)>'
p124
sS'request'
p125
g100
ssg73
I1650
sg74
(dp126
I1645
S'                                      "wsgiorg.futures": executor.futures})'
p127
sI1646
S''
sI1647
S'    def build_environ(self, sock_file, conn):'
p128
sI1648
S'        """ Build the execution environment. """'
p129
sI1649
S'        # Grab the request line'
p130
sI1650
S'        request = self.read_request_line(sock_file)'
p131
sI1651
S''
sI1652
S'        # Copy the Base Environment'
p132
sI1653
S'        environ = self.base_environ.copy()'
p133
sI1654
S''
ssg86
S'(self=<WSGIWorker(Thread-5, started daemon 140621028521728)>, sock_file=<socket._fileobject object>, conn=<gluon.rocket.Connection object>)'
p134
sg88
S'build_environ'
p135
sa(dp136
g63
S'/home/amauri/web2py/gluon/rocket.py'
p137
sg65
(dp138
S'global SocketTimeout'
p139
S"<class 'gluon.rocket.SocketTimeout'>"
p140
ssg73
I1401
sg74
(dp141
I1396
S''
sI1397
S'                d = sock_file.readline()'
p142
sI1398
S'                if PY3K:'
p143
sI1399
S"                    d = d.decode('ISO-8859-1')"
p144
sI1400
S'        except socket.timeout:'
p145
sI1401
S"            raise SocketTimeout('Socket timed out before request.')"
p146
sI1402
S'        except TypeError:'
p147
sI1403
S'            raise SocketClosed('
p148
sI1404
S"                'SSL bug caused closure of socket.  See '"
p149
sI1405
S'                \'"https://groups.google.com/d/topic/web2py/P_Gw0JxWzCs".\')'
p150
ssg86
S'(self=<WSGIWorker(Thread-5, started daemon 140621028521728)>, sock_file=<socket._fileobject object>)'
p151
sg88
S'read_request_line'
p152
sasS'pyver'
p153
S'Python 2.7.12: /usr/bin/python (prefix: /usr)'
p154
sS'etype'
p155
S"<class 'gluon.rocket.SocketTimeout'>"
p156
sS'date'
p157
S'Thu Sep  1 01:46:43 2016'
p158
sS'locals'
p159
(dp160
S'sock_file'
p161
S'<socket._fileobject object>'
p162
sS'self'
p163
S'<WSGIWorker(Thread-5, started daemon 140621028521728)>'
p164
sssS'traceback'
p165
S'Traceback (most recent call last):\n  File "/home/amauri/web2py/gluon/rocket.py", line 1337, in run\n    self.run_app(conn)\n  File "/home/amauri/web2py/gluon/rocket.py", line 1830, in run_app\n    self.environ = environ = self.build_environ(sock_file, conn)\n  File "/home/amauri/web2py/gluon/rocket.py", line 1650, in build_environ\n    request = self.read_request_line(sock_file)\n  File "/home/amauri/web2py/gluon/rocket.py", line 1401, in read_request_line\n    raise SocketTimeout(\'Socket timed out before request.\')\nSocketTimeout: Socket timed out before request.\n'
p166
s.